
cmsis_final_project.elf:     file format elf32-littlearm

Sections:
Idx Name          Size      VMA       LMA       File off  Algn
  0 .isr_vector   00000198  08000000  08000000  00001000  2**0
                  CONTENTS, ALLOC, LOAD, READONLY, DATA
  1 .text         00002f68  080001a0  080001a0  000011a0  2**4
                  CONTENTS, ALLOC, LOAD, READONLY, CODE
  2 .rodata       000008fc  08003108  08003108  00004108  2**2
                  CONTENTS, ALLOC, LOAD, READONLY, DATA
  3 .ARM.extab    00000000  08003a04  08003a04  00005070  2**0
                  CONTENTS, READONLY
  4 .ARM          00000008  08003a04  08003a04  00004a04  2**2
                  CONTENTS, ALLOC, LOAD, READONLY, DATA
  5 .preinit_array 00000000  08003a0c  08003a0c  00005070  2**0
                  CONTENTS, ALLOC, LOAD, DATA
  6 .init_array   00000004  08003a0c  08003a0c  00004a0c  2**2
                  CONTENTS, ALLOC, LOAD, READONLY, DATA
  7 .fini_array   00000004  08003a10  08003a10  00004a10  2**2
                  CONTENTS, ALLOC, LOAD, READONLY, DATA
  8 .data         00000070  20000000  08003a14  00005000  2**2
                  CONTENTS, ALLOC, LOAD, DATA
  9 .bss          00000a68  20000070  08003a84  00005070  2**2
                  ALLOC
 10 ._user_heap_stack 00000600  20000ad8  08003a84  00005ad8  2**0
                  ALLOC
 11 .ARM.attributes 00000030  00000000  00000000  00005070  2**0
                  CONTENTS, READONLY
 12 .debug_info   0000b726  00000000  00000000  000050a0  2**0
                  CONTENTS, READONLY, DEBUGGING, OCTETS
 13 .debug_abbrev 000023e0  00000000  00000000  000107c6  2**0
                  CONTENTS, READONLY, DEBUGGING, OCTETS
 14 .debug_aranges 00000a10  00000000  00000000  00012ba8  2**3
                  CONTENTS, READONLY, DEBUGGING, OCTETS
 15 .debug_rnglists 0000079c  00000000  00000000  000135b8  2**0
                  CONTENTS, READONLY, DEBUGGING, OCTETS
 16 .debug_macro  00010b18  00000000  00000000  00013d54  2**0
                  CONTENTS, READONLY, DEBUGGING, OCTETS
 17 .debug_line   0000cc92  00000000  00000000  0002486c  2**0
                  CONTENTS, READONLY, DEBUGGING, OCTETS
 18 .debug_str    00067cac  00000000  00000000  000314fe  2**0
                  CONTENTS, READONLY, DEBUGGING, OCTETS
 19 .comment      00000043  00000000  00000000  000991aa  2**0
                  CONTENTS, READONLY
 20 .debug_frame  00002ba8  00000000  00000000  000991f0  2**2
                  CONTENTS, READONLY, DEBUGGING, OCTETS
 21 .debug_line_str 00000075  00000000  00000000  0009bd98  2**0
                  CONTENTS, READONLY, DEBUGGING, OCTETS

Disassembly of section .text:

080001a0 <__do_global_dtors_aux>:
 80001a0:	b510      	push	{r4, lr}
 80001a2:	4c05      	ldr	r4, [pc, #20]	@ (80001b8 <__do_global_dtors_aux+0x18>)
 80001a4:	7823      	ldrb	r3, [r4, #0]
 80001a6:	b933      	cbnz	r3, 80001b6 <__do_global_dtors_aux+0x16>
 80001a8:	4b04      	ldr	r3, [pc, #16]	@ (80001bc <__do_global_dtors_aux+0x1c>)
 80001aa:	b113      	cbz	r3, 80001b2 <__do_global_dtors_aux+0x12>
 80001ac:	4804      	ldr	r0, [pc, #16]	@ (80001c0 <__do_global_dtors_aux+0x20>)
 80001ae:	f3af 8000 	nop.w
 80001b2:	2301      	movs	r3, #1
 80001b4:	7023      	strb	r3, [r4, #0]
 80001b6:	bd10      	pop	{r4, pc}
 80001b8:	20000070 	.word	0x20000070
 80001bc:	00000000 	.word	0x00000000
 80001c0:	080030f0 	.word	0x080030f0

080001c4 <frame_dummy>:
 80001c4:	b508      	push	{r3, lr}
 80001c6:	4b03      	ldr	r3, [pc, #12]	@ (80001d4 <frame_dummy+0x10>)
 80001c8:	b11b      	cbz	r3, 80001d2 <frame_dummy+0xe>
 80001ca:	4903      	ldr	r1, [pc, #12]	@ (80001d8 <frame_dummy+0x14>)
 80001cc:	4803      	ldr	r0, [pc, #12]	@ (80001dc <frame_dummy+0x18>)
 80001ce:	f3af 8000 	nop.w
 80001d2:	bd08      	pop	{r3, pc}
 80001d4:	00000000 	.word	0x00000000
 80001d8:	20000074 	.word	0x20000074
 80001dc:	080030f0 	.word	0x080030f0

080001e0 <strcmp>:
 80001e0:	f810 2b01 	ldrb.w	r2, [r0], #1
 80001e4:	f811 3b01 	ldrb.w	r3, [r1], #1
 80001e8:	2a01      	cmp	r2, #1
 80001ea:	bf28      	it	cs
 80001ec:	429a      	cmpcs	r2, r3
 80001ee:	d0f7      	beq.n	80001e0 <strcmp>
 80001f0:	1ad0      	subs	r0, r2, r3
 80001f2:	4770      	bx	lr
	...

08000200 <memchr>:
 8000200:	f001 01ff 	and.w	r1, r1, #255	@ 0xff
 8000204:	2a10      	cmp	r2, #16
 8000206:	db2b      	blt.n	8000260 <memchr+0x60>
 8000208:	f010 0f07 	tst.w	r0, #7
 800020c:	d008      	beq.n	8000220 <memchr+0x20>
 800020e:	f810 3b01 	ldrb.w	r3, [r0], #1
 8000212:	3a01      	subs	r2, #1
 8000214:	428b      	cmp	r3, r1
 8000216:	d02d      	beq.n	8000274 <memchr+0x74>
 8000218:	f010 0f07 	tst.w	r0, #7
 800021c:	b342      	cbz	r2, 8000270 <memchr+0x70>
 800021e:	d1f6      	bne.n	800020e <memchr+0xe>
 8000220:	b4f0      	push	{r4, r5, r6, r7}
 8000222:	ea41 2101 	orr.w	r1, r1, r1, lsl #8
 8000226:	ea41 4101 	orr.w	r1, r1, r1, lsl #16
 800022a:	f022 0407 	bic.w	r4, r2, #7
 800022e:	f07f 0700 	mvns.w	r7, #0
 8000232:	2300      	movs	r3, #0
 8000234:	e8f0 5602 	ldrd	r5, r6, [r0], #8
 8000238:	3c08      	subs	r4, #8
 800023a:	ea85 0501 	eor.w	r5, r5, r1
 800023e:	ea86 0601 	eor.w	r6, r6, r1
 8000242:	fa85 f547 	uadd8	r5, r5, r7
 8000246:	faa3 f587 	sel	r5, r3, r7
 800024a:	fa86 f647 	uadd8	r6, r6, r7
 800024e:	faa5 f687 	sel	r6, r5, r7
 8000252:	b98e      	cbnz	r6, 8000278 <memchr+0x78>
 8000254:	d1ee      	bne.n	8000234 <memchr+0x34>
 8000256:	bcf0      	pop	{r4, r5, r6, r7}
 8000258:	f001 01ff 	and.w	r1, r1, #255	@ 0xff
 800025c:	f002 0207 	and.w	r2, r2, #7
 8000260:	b132      	cbz	r2, 8000270 <memchr+0x70>
 8000262:	f810 3b01 	ldrb.w	r3, [r0], #1
 8000266:	3a01      	subs	r2, #1
 8000268:	ea83 0301 	eor.w	r3, r3, r1
 800026c:	b113      	cbz	r3, 8000274 <memchr+0x74>
 800026e:	d1f8      	bne.n	8000262 <memchr+0x62>
 8000270:	2000      	movs	r0, #0
 8000272:	4770      	bx	lr
 8000274:	3801      	subs	r0, #1
 8000276:	4770      	bx	lr
 8000278:	2d00      	cmp	r5, #0
 800027a:	bf06      	itte	eq
 800027c:	4635      	moveq	r5, r6
 800027e:	3803      	subeq	r0, #3
 8000280:	3807      	subne	r0, #7
 8000282:	f015 0f01 	tst.w	r5, #1
 8000286:	d107      	bne.n	8000298 <memchr+0x98>
 8000288:	3001      	adds	r0, #1
 800028a:	f415 7f80 	tst.w	r5, #256	@ 0x100
 800028e:	bf02      	ittt	eq
 8000290:	3001      	addeq	r0, #1
 8000292:	f415 3fc0 	tsteq.w	r5, #98304	@ 0x18000
 8000296:	3001      	addeq	r0, #1
 8000298:	bcf0      	pop	{r4, r5, r6, r7}
 800029a:	3801      	subs	r0, #1
 800029c:	4770      	bx	lr
 800029e:	bf00      	nop

080002a0 <SystemInit>:
  *         configuration.
  * @param  None
  * @retval None
  */
void SystemInit(void)
{
 80002a0:	b480      	push	{r7}
 80002a2:	af00      	add	r7, sp, #0
  /* FPU settings ------------------------------------------------------------*/
  #if (__FPU_PRESENT == 1) && (__FPU_USED == 1)
    SCB->CPACR |= ((3UL << 10*2)|(3UL << 11*2));  /* set CP10 and CP11 Full Access */
 80002a4:	4b06      	ldr	r3, [pc, #24]	@ (80002c0 <SystemInit+0x20>)
 80002a6:	f8d3 3088 	ldr.w	r3, [r3, #136]	@ 0x88
 80002aa:	4a05      	ldr	r2, [pc, #20]	@ (80002c0 <SystemInit+0x20>)
 80002ac:	f443 0370 	orr.w	r3, r3, #15728640	@ 0xf00000
 80002b0:	f8c2 3088 	str.w	r3, [r2, #136]	@ 0x88

  /* Configure the Vector Table location -------------------------------------*/
#if defined(USER_VECT_TAB_ADDRESS)
  SCB->VTOR = VECT_TAB_BASE_ADDRESS | VECT_TAB_OFFSET; /* Vector Table Relocation in Internal SRAM */
#endif /* USER_VECT_TAB_ADDRESS */
}
 80002b4:	bf00      	nop
 80002b6:	46bd      	mov	sp, r7
 80002b8:	f85d 7b04 	ldr.w	r7, [sp], #4
 80002bc:	4770      	bx	lr
 80002be:	bf00      	nop
 80002c0:	e000ed00 	.word	0xe000ed00

080002c4 <SystemCoreClockUpdate>:
  *     
  * @param  None
  * @retval None
  */
void SystemCoreClockUpdate(void)
{
 80002c4:	b480      	push	{r7}
 80002c6:	b087      	sub	sp, #28
 80002c8:	af00      	add	r7, sp, #0
  uint32_t tmp, pllvco, pllp, pllsource, pllm;
  
  /* Get SYSCLK source -------------------------------------------------------*/
  tmp = RCC->CFGR & RCC_CFGR_SWS;
 80002ca:	4b34      	ldr	r3, [pc, #208]	@ (800039c <SystemCoreClockUpdate+0xd8>)
 80002cc:	689b      	ldr	r3, [r3, #8]
 80002ce:	f003 030c 	and.w	r3, r3, #12
 80002d2:	613b      	str	r3, [r7, #16]

  switch (tmp)
 80002d4:	693b      	ldr	r3, [r7, #16]
 80002d6:	2b08      	cmp	r3, #8
 80002d8:	d011      	beq.n	80002fe <SystemCoreClockUpdate+0x3a>
 80002da:	693b      	ldr	r3, [r7, #16]
 80002dc:	2b08      	cmp	r3, #8
 80002de:	d844      	bhi.n	800036a <SystemCoreClockUpdate+0xa6>
 80002e0:	693b      	ldr	r3, [r7, #16]
 80002e2:	2b00      	cmp	r3, #0
 80002e4:	d003      	beq.n	80002ee <SystemCoreClockUpdate+0x2a>
 80002e6:	693b      	ldr	r3, [r7, #16]
 80002e8:	2b04      	cmp	r3, #4
 80002ea:	d004      	beq.n	80002f6 <SystemCoreClockUpdate+0x32>
 80002ec:	e03d      	b.n	800036a <SystemCoreClockUpdate+0xa6>
  {
    case 0x00:  /* HSI used as system clock source */
      SystemCoreClock = HSI_VALUE;
 80002ee:	4b2c      	ldr	r3, [pc, #176]	@ (80003a0 <SystemCoreClockUpdate+0xdc>)
 80002f0:	4a2c      	ldr	r2, [pc, #176]	@ (80003a4 <SystemCoreClockUpdate+0xe0>)
 80002f2:	601a      	str	r2, [r3, #0]
      break;
 80002f4:	e03d      	b.n	8000372 <SystemCoreClockUpdate+0xae>
    case 0x04:  /* HSE used as system clock source */
      SystemCoreClock = HSE_VALUE;
 80002f6:	4b2a      	ldr	r3, [pc, #168]	@ (80003a0 <SystemCoreClockUpdate+0xdc>)
 80002f8:	4a2b      	ldr	r2, [pc, #172]	@ (80003a8 <SystemCoreClockUpdate+0xe4>)
 80002fa:	601a      	str	r2, [r3, #0]
      break;
 80002fc:	e039      	b.n	8000372 <SystemCoreClockUpdate+0xae>
    case 0x08:  /* PLL used as system clock source */

      /* PLL_VCO = (HSE_VALUE or HSI_VALUE / PLL_M) * PLL_N
         SYSCLK = PLL_VCO / PLL_P
         */    
      pllsource = (RCC->PLLCFGR & RCC_PLLCFGR_PLLSRC) >> 22;
 80002fe:	4b27      	ldr	r3, [pc, #156]	@ (800039c <SystemCoreClockUpdate+0xd8>)
 8000300:	685b      	ldr	r3, [r3, #4]
 8000302:	0d9b      	lsrs	r3, r3, #22
 8000304:	f003 0301 	and.w	r3, r3, #1
 8000308:	60fb      	str	r3, [r7, #12]
      pllm = RCC->PLLCFGR & RCC_PLLCFGR_PLLM;
 800030a:	4b24      	ldr	r3, [pc, #144]	@ (800039c <SystemCoreClockUpdate+0xd8>)
 800030c:	685b      	ldr	r3, [r3, #4]
 800030e:	f003 033f 	and.w	r3, r3, #63	@ 0x3f
 8000312:	60bb      	str	r3, [r7, #8]
      
      if (pllsource != 0)
 8000314:	68fb      	ldr	r3, [r7, #12]
 8000316:	2b00      	cmp	r3, #0
 8000318:	d00c      	beq.n	8000334 <SystemCoreClockUpdate+0x70>
      {
        /* HSE used as PLL clock source */
        pllvco = (HSE_VALUE / pllm) * ((RCC->PLLCFGR & RCC_PLLCFGR_PLLN) >> 6);
 800031a:	4a23      	ldr	r2, [pc, #140]	@ (80003a8 <SystemCoreClockUpdate+0xe4>)
 800031c:	68bb      	ldr	r3, [r7, #8]
 800031e:	fbb2 f3f3 	udiv	r3, r2, r3
 8000322:	4a1e      	ldr	r2, [pc, #120]	@ (800039c <SystemCoreClockUpdate+0xd8>)
 8000324:	6852      	ldr	r2, [r2, #4]
 8000326:	0992      	lsrs	r2, r2, #6
 8000328:	f3c2 0208 	ubfx	r2, r2, #0, #9
 800032c:	fb02 f303 	mul.w	r3, r2, r3
 8000330:	617b      	str	r3, [r7, #20]
 8000332:	e00b      	b.n	800034c <SystemCoreClockUpdate+0x88>
      }
      else
      {
        /* HSI used as PLL clock source */
        pllvco = (HSI_VALUE / pllm) * ((RCC->PLLCFGR & RCC_PLLCFGR_PLLN) >> 6);
 8000334:	4a1b      	ldr	r2, [pc, #108]	@ (80003a4 <SystemCoreClockUpdate+0xe0>)
 8000336:	68bb      	ldr	r3, [r7, #8]
 8000338:	fbb2 f3f3 	udiv	r3, r2, r3
 800033c:	4a17      	ldr	r2, [pc, #92]	@ (800039c <SystemCoreClockUpdate+0xd8>)
 800033e:	6852      	ldr	r2, [r2, #4]
 8000340:	0992      	lsrs	r2, r2, #6
 8000342:	f3c2 0208 	ubfx	r2, r2, #0, #9
 8000346:	fb02 f303 	mul.w	r3, r2, r3
 800034a:	617b      	str	r3, [r7, #20]
      }

      pllp = (((RCC->PLLCFGR & RCC_PLLCFGR_PLLP) >>16) + 1 ) *2;
 800034c:	4b13      	ldr	r3, [pc, #76]	@ (800039c <SystemCoreClockUpdate+0xd8>)
 800034e:	685b      	ldr	r3, [r3, #4]
 8000350:	0c1b      	lsrs	r3, r3, #16
 8000352:	f003 0303 	and.w	r3, r3, #3
 8000356:	3301      	adds	r3, #1
 8000358:	005b      	lsls	r3, r3, #1
 800035a:	607b      	str	r3, [r7, #4]
      SystemCoreClock = pllvco/pllp;
 800035c:	697a      	ldr	r2, [r7, #20]
 800035e:	687b      	ldr	r3, [r7, #4]
 8000360:	fbb2 f3f3 	udiv	r3, r2, r3
 8000364:	4a0e      	ldr	r2, [pc, #56]	@ (80003a0 <SystemCoreClockUpdate+0xdc>)
 8000366:	6013      	str	r3, [r2, #0]
      break;
 8000368:	e003      	b.n	8000372 <SystemCoreClockUpdate+0xae>
    default:
      SystemCoreClock = HSI_VALUE;
 800036a:	4b0d      	ldr	r3, [pc, #52]	@ (80003a0 <SystemCoreClockUpdate+0xdc>)
 800036c:	4a0d      	ldr	r2, [pc, #52]	@ (80003a4 <SystemCoreClockUpdate+0xe0>)
 800036e:	601a      	str	r2, [r3, #0]
      break;
 8000370:	bf00      	nop
  }
  /* Compute HCLK frequency --------------------------------------------------*/
  /* Get HCLK prescaler */
  tmp = AHBPrescTable[((RCC->CFGR & RCC_CFGR_HPRE) >> 4)];
 8000372:	4b0a      	ldr	r3, [pc, #40]	@ (800039c <SystemCoreClockUpdate+0xd8>)
 8000374:	689b      	ldr	r3, [r3, #8]
 8000376:	091b      	lsrs	r3, r3, #4
 8000378:	f003 030f 	and.w	r3, r3, #15
 800037c:	4a0b      	ldr	r2, [pc, #44]	@ (80003ac <SystemCoreClockUpdate+0xe8>)
 800037e:	5cd3      	ldrb	r3, [r2, r3]
 8000380:	613b      	str	r3, [r7, #16]
  /* HCLK frequency */
  SystemCoreClock >>= tmp;
 8000382:	4b07      	ldr	r3, [pc, #28]	@ (80003a0 <SystemCoreClockUpdate+0xdc>)
 8000384:	681a      	ldr	r2, [r3, #0]
 8000386:	693b      	ldr	r3, [r7, #16]
 8000388:	fa22 f303 	lsr.w	r3, r2, r3
 800038c:	4a04      	ldr	r2, [pc, #16]	@ (80003a0 <SystemCoreClockUpdate+0xdc>)
 800038e:	6013      	str	r3, [r2, #0]
}
 8000390:	bf00      	nop
 8000392:	371c      	adds	r7, #28
 8000394:	46bd      	mov	sp, r7
 8000396:	f85d 7b04 	ldr.w	r7, [sp], #4
 800039a:	4770      	bx	lr
 800039c:	40023800 	.word	0x40023800
 80003a0:	20000000 	.word	0x20000000
 80003a4:	00f42400 	.word	0x00f42400
 80003a8:	017d7840 	.word	0x017d7840
 80003ac:	0800324c 	.word	0x0800324c

080003b0 <SysTick_Handler>:
extern void xPortSysTickHandler (void);

/*
  SysTick handler implementation that also clears overflow flag.
*/
void SysTick_Handler (void) {
 80003b0:	b580      	push	{r7, lr}
 80003b2:	af00      	add	r7, sp, #0
#if (configUSE_TICKLESS_IDLE == 0)
  /* Clear overflow flag */
  SysTick->CTRL;
 80003b4:	4b05      	ldr	r3, [pc, #20]	@ (80003cc <SysTick_Handler+0x1c>)
 80003b6:	681b      	ldr	r3, [r3, #0]
#endif

  if (xTaskGetSchedulerState() != taskSCHEDULER_NOT_STARTED) {
 80003b8:	f000 fa44 	bl	8000844 <xTaskGetSchedulerState>
 80003bc:	4603      	mov	r3, r0
 80003be:	2b01      	cmp	r3, #1
 80003c0:	d001      	beq.n	80003c6 <SysTick_Handler+0x16>
    /* Call tick handler */
    xPortSysTickHandler();
 80003c2:	f000 f859 	bl	8000478 <xPortSysTickHandler>
  }
}
 80003c6:	bf00      	nop
 80003c8:	bd80      	pop	{r7, pc}
 80003ca:	bf00      	nop
 80003cc:	e000e010 	.word	0xe000e010

080003d0 <vApplicationStackOverflowHook>:

/**
  Dummy implementation of the callback function vApplicationStackOverflowHook().
*/
#if (configCHECK_FOR_STACK_OVERFLOW > 0)
__WEAK void vApplicationStackOverflowHook (TaskHandle_t xTask, char *pcTaskName) {
 80003d0:	b480      	push	{r7}
 80003d2:	b085      	sub	sp, #20
 80003d4:	af00      	add	r7, sp, #0
 80003d6:	6078      	str	r0, [r7, #4]
 80003d8:	6039      	str	r1, [r7, #0]

portFORCE_INLINE static void vPortRaiseBASEPRI( void )
{
    uint32_t ulNewBASEPRI;

    __asm volatile
 80003da:	f04f 0380 	mov.w	r3, #128	@ 0x80
 80003de:	f383 8811 	msr	BASEPRI, r3
 80003e2:	f3bf 8f6f 	isb	sy
 80003e6:	f3bf 8f4f 	dsb	sy
 80003ea:	60fb      	str	r3, [r7, #12]
        "   msr basepri, %0                                         \n" \
        "   isb                                                     \n" \
        "   dsb                                                     \n" \
        : "=r" ( ulNewBASEPRI ) : "i" ( configMAX_SYSCALL_INTERRUPT_PRIORITY ) : "memory"
    );
}
 80003ec:	bf00      	nop
  (void)xTask;
  (void)pcTaskName;

  /* Assert when stack overflow is enabled but no application defined function exists */
  configASSERT(0);
 80003ee:	bf00      	nop
 80003f0:	e7fd      	b.n	80003ee <vApplicationStackOverflowHook+0x1e>
	...

080003f4 <SVC_Handler>:
}
/*-----------------------------------------------------------*/

void vPortSVCHandler( void )
{
    __asm volatile (
 80003f4:	4b06      	ldr	r3, [pc, #24]	@ (8000410 <SVC_Handler+0x1c>)
 80003f6:	6819      	ldr	r1, [r3, #0]
 80003f8:	6808      	ldr	r0, [r1, #0]
 80003fa:	e8b0 4ff0 	ldmia.w	r0!, {r4, r5, r6, r7, r8, r9, sl, fp, lr}
 80003fe:	f380 8809 	msr	PSP, r0
 8000402:	f3bf 8f6f 	isb	sy
 8000406:	f04f 0000 	mov.w	r0, #0
 800040a:	f380 8811 	msr	BASEPRI, r0
 800040e:	4770      	bx	lr
 8000410:	2000008c 	.word	0x2000008c
        "   msr basepri, r0                 \n"
        "   bx r14                          \n"
        "                                   \n"
        "   .ltorg                          \n"
        );
}
 8000414:	bf00      	nop
 8000416:	bf00      	nop

08000418 <PendSV_Handler>:

void xPortPendSVHandler( void )
{
    /* This is a naked function. */

    __asm volatile
 8000418:	f3ef 8009 	mrs	r0, PSP
 800041c:	f3bf 8f6f 	isb	sy
 8000420:	4b13      	ldr	r3, [pc, #76]	@ (8000470 <PendSV_Handler+0x58>)
 8000422:	681a      	ldr	r2, [r3, #0]
 8000424:	f01e 0f10 	tst.w	lr, #16
 8000428:	bf08      	it	eq
 800042a:	ed20 8a10 	vstmdbeq	r0!, {s16-s31}
 800042e:	e920 4ff0 	stmdb	r0!, {r4, r5, r6, r7, r8, r9, sl, fp, lr}
 8000432:	6010      	str	r0, [r2, #0]
 8000434:	b409      	push	{r0, r3}
 8000436:	f04f 0080 	mov.w	r0, #128	@ 0x80
 800043a:	f380 8811 	msr	BASEPRI, r0
 800043e:	f3bf 8f4f 	dsb	sy
 8000442:	f3bf 8f6f 	isb	sy
 8000446:	f000 f953 	bl	80006f0 <vTaskSwitchContext>
 800044a:	f04f 0000 	mov.w	r0, #0
 800044e:	f380 8811 	msr	BASEPRI, r0
 8000452:	bc09      	pop	{r0, r3}
 8000454:	6819      	ldr	r1, [r3, #0]
 8000456:	6808      	ldr	r0, [r1, #0]
 8000458:	e8b0 4ff0 	ldmia.w	r0!, {r4, r5, r6, r7, r8, r9, sl, fp, lr}
 800045c:	f01e 0f10 	tst.w	lr, #16
 8000460:	bf08      	it	eq
 8000462:	ecb0 8a10 	vldmiaeq	r0!, {s16-s31}
 8000466:	f380 8809 	msr	PSP, r0
 800046a:	f3bf 8f6f 	isb	sy
 800046e:	4770      	bx	lr
 8000470:	2000008c 	.word	0x2000008c
        "   bx r14                              \n"
        "                                       \n"
        "   .ltorg                              \n"
        ::"i" ( configMAX_SYSCALL_INTERRUPT_PRIORITY )
    );
}
 8000474:	bf00      	nop
 8000476:	bf00      	nop

08000478 <xPortSysTickHandler>:
/*-----------------------------------------------------------*/

void xPortSysTickHandler( void )
{
 8000478:	b580      	push	{r7, lr}
 800047a:	b082      	sub	sp, #8
 800047c:	af00      	add	r7, sp, #0
    __asm volatile
 800047e:	f04f 0380 	mov.w	r3, #128	@ 0x80
 8000482:	f383 8811 	msr	BASEPRI, r3
 8000486:	f3bf 8f6f 	isb	sy
 800048a:	f3bf 8f4f 	dsb	sy
 800048e:	607b      	str	r3, [r7, #4]
}
 8000490:	bf00      	nop
     * known. */
    portDISABLE_INTERRUPTS();
    traceISR_ENTER();
    {
        /* Increment the RTOS tick. */
        if( xTaskIncrementTick() != pdFALSE )
 8000492:	f000 f813 	bl	80004bc <xTaskIncrementTick>
 8000496:	4603      	mov	r3, r0
 8000498:	2b00      	cmp	r3, #0
 800049a:	d003      	beq.n	80004a4 <xPortSysTickHandler+0x2c>
        {
            traceISR_EXIT_TO_SCHEDULER();

            /* A context switch is required.  Context switching is performed in
             * the PendSV interrupt.  Pend the PendSV interrupt. */
            portNVIC_INT_CTRL_REG = portNVIC_PENDSVSET_BIT;
 800049c:	4b06      	ldr	r3, [pc, #24]	@ (80004b8 <xPortSysTickHandler+0x40>)
 800049e:	f04f 5280 	mov.w	r2, #268435456	@ 0x10000000
 80004a2:	601a      	str	r2, [r3, #0]
 80004a4:	2300      	movs	r3, #0
 80004a6:	603b      	str	r3, [r7, #0]
}
/*-----------------------------------------------------------*/

portFORCE_INLINE static void vPortSetBASEPRI( uint32_t ulNewMaskValue )
{
    __asm volatile
 80004a8:	683b      	ldr	r3, [r7, #0]
 80004aa:	f383 8811 	msr	BASEPRI, r3
    (
        "   msr basepri, %0 " ::"r" ( ulNewMaskValue ) : "memory"
    );
}
 80004ae:	bf00      	nop
        {
            traceISR_EXIT();
        }
    }
    portENABLE_INTERRUPTS();
}
 80004b0:	bf00      	nop
 80004b2:	3708      	adds	r7, #8
 80004b4:	46bd      	mov	sp, r7
 80004b6:	bd80      	pop	{r7, pc}
 80004b8:	e000ed04 	.word	0xe000ed04

080004bc <xTaskIncrementTick>:

#endif /* INCLUDE_xTaskAbortDelay */
/*----------------------------------------------------------*/

BaseType_t xTaskIncrementTick( void )
{
 80004bc:	b580      	push	{r7, lr}
 80004be:	b08a      	sub	sp, #40	@ 0x28
 80004c0:	af00      	add	r7, sp, #0
    TCB_t * pxTCB;
    TickType_t xItemValue;
    BaseType_t xSwitchRequired = pdFALSE;
 80004c2:	2300      	movs	r3, #0
 80004c4:	627b      	str	r3, [r7, #36]	@ 0x24

    /* Tick increment should occur on every kernel timer event. Core 0 has the
     * responsibility to increment the tick, or increment the pended ticks if the
     * scheduler is suspended.  If pended ticks is greater than zero, the core that
     * calls xTaskResumeAll has the responsibility to increment the tick. */
    if( uxSchedulerSuspended == ( UBaseType_t ) 0U )
 80004c6:	4b7f      	ldr	r3, [pc, #508]	@ (80006c4 <xTaskIncrementTick+0x208>)
 80004c8:	681b      	ldr	r3, [r3, #0]
 80004ca:	2b00      	cmp	r3, #0
 80004cc:	f040 80f0 	bne.w	80006b0 <xTaskIncrementTick+0x1f4>
    {
        /* Minor optimisation.  The tick count cannot change in this
         * block. */
        const TickType_t xConstTickCount = xTickCount + ( TickType_t ) 1;
 80004d0:	4b7d      	ldr	r3, [pc, #500]	@ (80006c8 <xTaskIncrementTick+0x20c>)
 80004d2:	681b      	ldr	r3, [r3, #0]
 80004d4:	3301      	adds	r3, #1
 80004d6:	623b      	str	r3, [r7, #32]

        /* Increment the RTOS tick, switching the delayed and overflowed
         * delayed lists if it wraps to 0. */
        xTickCount = xConstTickCount;
 80004d8:	4a7b      	ldr	r2, [pc, #492]	@ (80006c8 <xTaskIncrementTick+0x20c>)
 80004da:	6a3b      	ldr	r3, [r7, #32]
 80004dc:	6013      	str	r3, [r2, #0]

        if( xConstTickCount == ( TickType_t ) 0U )
 80004de:	6a3b      	ldr	r3, [r7, #32]
 80004e0:	2b00      	cmp	r3, #0
 80004e2:	d121      	bne.n	8000528 <xTaskIncrementTick+0x6c>
        {
            taskSWITCH_DELAYED_LISTS();
 80004e4:	4b79      	ldr	r3, [pc, #484]	@ (80006cc <xTaskIncrementTick+0x210>)
 80004e6:	681b      	ldr	r3, [r3, #0]
 80004e8:	681b      	ldr	r3, [r3, #0]
 80004ea:	2b00      	cmp	r3, #0
 80004ec:	d00b      	beq.n	8000506 <xTaskIncrementTick+0x4a>
    __asm volatile
 80004ee:	f04f 0380 	mov.w	r3, #128	@ 0x80
 80004f2:	f383 8811 	msr	BASEPRI, r3
 80004f6:	f3bf 8f6f 	isb	sy
 80004fa:	f3bf 8f4f 	dsb	sy
 80004fe:	607b      	str	r3, [r7, #4]
}
 8000500:	bf00      	nop
 8000502:	bf00      	nop
 8000504:	e7fd      	b.n	8000502 <xTaskIncrementTick+0x46>
 8000506:	4b71      	ldr	r3, [pc, #452]	@ (80006cc <xTaskIncrementTick+0x210>)
 8000508:	681b      	ldr	r3, [r3, #0]
 800050a:	61fb      	str	r3, [r7, #28]
 800050c:	4b70      	ldr	r3, [pc, #448]	@ (80006d0 <xTaskIncrementTick+0x214>)
 800050e:	681b      	ldr	r3, [r3, #0]
 8000510:	4a6e      	ldr	r2, [pc, #440]	@ (80006cc <xTaskIncrementTick+0x210>)
 8000512:	6013      	str	r3, [r2, #0]
 8000514:	4a6e      	ldr	r2, [pc, #440]	@ (80006d0 <xTaskIncrementTick+0x214>)
 8000516:	69fb      	ldr	r3, [r7, #28]
 8000518:	6013      	str	r3, [r2, #0]
 800051a:	4b6e      	ldr	r3, [pc, #440]	@ (80006d4 <xTaskIncrementTick+0x218>)
 800051c:	681b      	ldr	r3, [r3, #0]
 800051e:	3301      	adds	r3, #1
 8000520:	4a6c      	ldr	r2, [pc, #432]	@ (80006d4 <xTaskIncrementTick+0x218>)
 8000522:	6013      	str	r3, [r2, #0]
 8000524:	f000 f972 	bl	800080c <prvResetNextTaskUnblockTime>

        /* See if this tick has made a timeout expire.  Tasks are stored in
         * the  queue in the order of their wake time - meaning once one task
         * has been found whose block time has not expired there is no need to
         * look any further down the list. */
        if( xConstTickCount >= xNextTaskUnblockTime )
 8000528:	4b6b      	ldr	r3, [pc, #428]	@ (80006d8 <xTaskIncrementTick+0x21c>)
 800052a:	681b      	ldr	r3, [r3, #0]
 800052c:	6a3a      	ldr	r2, [r7, #32]
 800052e:	429a      	cmp	r2, r3
 8000530:	f0c0 80a9 	bcc.w	8000686 <xTaskIncrementTick+0x1ca>
        {
            for( ; ; )
            {
                if( listLIST_IS_EMPTY( pxDelayedTaskList ) != pdFALSE )
 8000534:	4b65      	ldr	r3, [pc, #404]	@ (80006cc <xTaskIncrementTick+0x210>)
 8000536:	681b      	ldr	r3, [r3, #0]
 8000538:	681b      	ldr	r3, [r3, #0]
 800053a:	2b00      	cmp	r3, #0
 800053c:	d104      	bne.n	8000548 <xTaskIncrementTick+0x8c>
                    /* The delayed list is empty.  Set xNextTaskUnblockTime
                     * to the maximum possible value so it is extremely
                     * unlikely that the
                     * if( xTickCount >= xNextTaskUnblockTime ) test will pass
                     * next time through. */
                    xNextTaskUnblockTime = portMAX_DELAY;
 800053e:	4b66      	ldr	r3, [pc, #408]	@ (80006d8 <xTaskIncrementTick+0x21c>)
 8000540:	f04f 32ff 	mov.w	r2, #4294967295
 8000544:	601a      	str	r2, [r3, #0]
                    break;
 8000546:	e09e      	b.n	8000686 <xTaskIncrementTick+0x1ca>
                     * at which the task at the head of the delayed list must
                     * be removed from the Blocked state. */
                    /* MISRA Ref 11.5.3 [Void pointer assignment] */
                    /* More details at: https://github.com/FreeRTOS/FreeRTOS-Kernel/blob/main/MISRA.md#rule-115 */
                    /* coverity[misra_c_2012_rule_11_5_violation] */
                    pxTCB = listGET_OWNER_OF_HEAD_ENTRY( pxDelayedTaskList );
 8000548:	4b60      	ldr	r3, [pc, #384]	@ (80006cc <xTaskIncrementTick+0x210>)
 800054a:	681b      	ldr	r3, [r3, #0]
 800054c:	68db      	ldr	r3, [r3, #12]
 800054e:	68db      	ldr	r3, [r3, #12]
 8000550:	61bb      	str	r3, [r7, #24]
                    xItemValue = listGET_LIST_ITEM_VALUE( &( pxTCB->xStateListItem ) );
 8000552:	69bb      	ldr	r3, [r7, #24]
 8000554:	685b      	ldr	r3, [r3, #4]
 8000556:	617b      	str	r3, [r7, #20]

                    if( xConstTickCount < xItemValue )
 8000558:	6a3a      	ldr	r2, [r7, #32]
 800055a:	697b      	ldr	r3, [r7, #20]
 800055c:	429a      	cmp	r2, r3
 800055e:	d203      	bcs.n	8000568 <xTaskIncrementTick+0xac>
                        /* It is not time to unblock this item yet, but the
                         * item value is the time at which the task at the head
                         * of the blocked list must be removed from the Blocked
                         * state -  so record the item value in
                         * xNextTaskUnblockTime. */
                        xNextTaskUnblockTime = xItemValue;
 8000560:	4a5d      	ldr	r2, [pc, #372]	@ (80006d8 <xTaskIncrementTick+0x21c>)
 8000562:	697b      	ldr	r3, [r7, #20]
 8000564:	6013      	str	r3, [r2, #0]
                        break;
 8000566:	e08e      	b.n	8000686 <xTaskIncrementTick+0x1ca>
                    {
                        mtCOVERAGE_TEST_MARKER();
                    }

                    /* It is time to remove the item from the Blocked state. */
                    listREMOVE_ITEM( &( pxTCB->xStateListItem ) );
 8000568:	69bb      	ldr	r3, [r7, #24]
 800056a:	695b      	ldr	r3, [r3, #20]
 800056c:	613b      	str	r3, [r7, #16]
 800056e:	69bb      	ldr	r3, [r7, #24]
 8000570:	689b      	ldr	r3, [r3, #8]
 8000572:	69ba      	ldr	r2, [r7, #24]
 8000574:	68d2      	ldr	r2, [r2, #12]
 8000576:	609a      	str	r2, [r3, #8]
 8000578:	69bb      	ldr	r3, [r7, #24]
 800057a:	68db      	ldr	r3, [r3, #12]
 800057c:	69ba      	ldr	r2, [r7, #24]
 800057e:	6892      	ldr	r2, [r2, #8]
 8000580:	605a      	str	r2, [r3, #4]
 8000582:	693b      	ldr	r3, [r7, #16]
 8000584:	685a      	ldr	r2, [r3, #4]
 8000586:	69bb      	ldr	r3, [r7, #24]
 8000588:	3304      	adds	r3, #4
 800058a:	429a      	cmp	r2, r3
 800058c:	d103      	bne.n	8000596 <xTaskIncrementTick+0xda>
 800058e:	69bb      	ldr	r3, [r7, #24]
 8000590:	68da      	ldr	r2, [r3, #12]
 8000592:	693b      	ldr	r3, [r7, #16]
 8000594:	605a      	str	r2, [r3, #4]
 8000596:	69bb      	ldr	r3, [r7, #24]
 8000598:	2200      	movs	r2, #0
 800059a:	615a      	str	r2, [r3, #20]
 800059c:	693b      	ldr	r3, [r7, #16]
 800059e:	681b      	ldr	r3, [r3, #0]
 80005a0:	1e5a      	subs	r2, r3, #1
 80005a2:	693b      	ldr	r3, [r7, #16]
 80005a4:	601a      	str	r2, [r3, #0]

                    /* Is the task waiting on an event also?  If so remove
                     * it from the event list. */
                    if( listLIST_ITEM_CONTAINER( &( pxTCB->xEventListItem ) ) != NULL )
 80005a6:	69bb      	ldr	r3, [r7, #24]
 80005a8:	6a9b      	ldr	r3, [r3, #40]	@ 0x28
 80005aa:	2b00      	cmp	r3, #0
 80005ac:	d01e      	beq.n	80005ec <xTaskIncrementTick+0x130>
                    {
                        listREMOVE_ITEM( &( pxTCB->xEventListItem ) );
 80005ae:	69bb      	ldr	r3, [r7, #24]
 80005b0:	6a9b      	ldr	r3, [r3, #40]	@ 0x28
 80005b2:	60fb      	str	r3, [r7, #12]
 80005b4:	69bb      	ldr	r3, [r7, #24]
 80005b6:	69db      	ldr	r3, [r3, #28]
 80005b8:	69ba      	ldr	r2, [r7, #24]
 80005ba:	6a12      	ldr	r2, [r2, #32]
 80005bc:	609a      	str	r2, [r3, #8]
 80005be:	69bb      	ldr	r3, [r7, #24]
 80005c0:	6a1b      	ldr	r3, [r3, #32]
 80005c2:	69ba      	ldr	r2, [r7, #24]
 80005c4:	69d2      	ldr	r2, [r2, #28]
 80005c6:	605a      	str	r2, [r3, #4]
 80005c8:	68fb      	ldr	r3, [r7, #12]
 80005ca:	685a      	ldr	r2, [r3, #4]
 80005cc:	69bb      	ldr	r3, [r7, #24]
 80005ce:	3318      	adds	r3, #24
 80005d0:	429a      	cmp	r2, r3
 80005d2:	d103      	bne.n	80005dc <xTaskIncrementTick+0x120>
 80005d4:	69bb      	ldr	r3, [r7, #24]
 80005d6:	6a1a      	ldr	r2, [r3, #32]
 80005d8:	68fb      	ldr	r3, [r7, #12]
 80005da:	605a      	str	r2, [r3, #4]
 80005dc:	69bb      	ldr	r3, [r7, #24]
 80005de:	2200      	movs	r2, #0
 80005e0:	629a      	str	r2, [r3, #40]	@ 0x28
 80005e2:	68fb      	ldr	r3, [r7, #12]
 80005e4:	681b      	ldr	r3, [r3, #0]
 80005e6:	1e5a      	subs	r2, r3, #1
 80005e8:	68fb      	ldr	r3, [r7, #12]
 80005ea:	601a      	str	r2, [r3, #0]
                        mtCOVERAGE_TEST_MARKER();
                    }

                    /* Place the unblocked task into the appropriate ready
                     * list. */
                    prvAddTaskToReadyList( pxTCB );
 80005ec:	69bb      	ldr	r3, [r7, #24]
 80005ee:	6ada      	ldr	r2, [r3, #44]	@ 0x2c
 80005f0:	4b3a      	ldr	r3, [pc, #232]	@ (80006dc <xTaskIncrementTick+0x220>)
 80005f2:	681b      	ldr	r3, [r3, #0]
 80005f4:	429a      	cmp	r2, r3
 80005f6:	d903      	bls.n	8000600 <xTaskIncrementTick+0x144>
 80005f8:	69bb      	ldr	r3, [r7, #24]
 80005fa:	6adb      	ldr	r3, [r3, #44]	@ 0x2c
 80005fc:	4a37      	ldr	r2, [pc, #220]	@ (80006dc <xTaskIncrementTick+0x220>)
 80005fe:	6013      	str	r3, [r2, #0]
 8000600:	69bb      	ldr	r3, [r7, #24]
 8000602:	6ada      	ldr	r2, [r3, #44]	@ 0x2c
 8000604:	4936      	ldr	r1, [pc, #216]	@ (80006e0 <xTaskIncrementTick+0x224>)
 8000606:	4613      	mov	r3, r2
 8000608:	009b      	lsls	r3, r3, #2
 800060a:	4413      	add	r3, r2
 800060c:	009b      	lsls	r3, r3, #2
 800060e:	440b      	add	r3, r1
 8000610:	3304      	adds	r3, #4
 8000612:	681b      	ldr	r3, [r3, #0]
 8000614:	60bb      	str	r3, [r7, #8]
 8000616:	69bb      	ldr	r3, [r7, #24]
 8000618:	68ba      	ldr	r2, [r7, #8]
 800061a:	609a      	str	r2, [r3, #8]
 800061c:	68bb      	ldr	r3, [r7, #8]
 800061e:	689a      	ldr	r2, [r3, #8]
 8000620:	69bb      	ldr	r3, [r7, #24]
 8000622:	60da      	str	r2, [r3, #12]
 8000624:	68bb      	ldr	r3, [r7, #8]
 8000626:	689b      	ldr	r3, [r3, #8]
 8000628:	69ba      	ldr	r2, [r7, #24]
 800062a:	3204      	adds	r2, #4
 800062c:	605a      	str	r2, [r3, #4]
 800062e:	69bb      	ldr	r3, [r7, #24]
 8000630:	1d1a      	adds	r2, r3, #4
 8000632:	68bb      	ldr	r3, [r7, #8]
 8000634:	609a      	str	r2, [r3, #8]
 8000636:	69bb      	ldr	r3, [r7, #24]
 8000638:	6ada      	ldr	r2, [r3, #44]	@ 0x2c
 800063a:	4613      	mov	r3, r2
 800063c:	009b      	lsls	r3, r3, #2
 800063e:	4413      	add	r3, r2
 8000640:	009b      	lsls	r3, r3, #2
 8000642:	4a27      	ldr	r2, [pc, #156]	@ (80006e0 <xTaskIncrementTick+0x224>)
 8000644:	441a      	add	r2, r3
 8000646:	69bb      	ldr	r3, [r7, #24]
 8000648:	615a      	str	r2, [r3, #20]
 800064a:	69bb      	ldr	r3, [r7, #24]
 800064c:	6ada      	ldr	r2, [r3, #44]	@ 0x2c
 800064e:	4924      	ldr	r1, [pc, #144]	@ (80006e0 <xTaskIncrementTick+0x224>)
 8000650:	4613      	mov	r3, r2
 8000652:	009b      	lsls	r3, r3, #2
 8000654:	4413      	add	r3, r2
 8000656:	009b      	lsls	r3, r3, #2
 8000658:	440b      	add	r3, r1
 800065a:	681b      	ldr	r3, [r3, #0]
 800065c:	69ba      	ldr	r2, [r7, #24]
 800065e:	6ad2      	ldr	r2, [r2, #44]	@ 0x2c
 8000660:	1c59      	adds	r1, r3, #1
 8000662:	481f      	ldr	r0, [pc, #124]	@ (80006e0 <xTaskIncrementTick+0x224>)
 8000664:	4613      	mov	r3, r2
 8000666:	009b      	lsls	r3, r3, #2
 8000668:	4413      	add	r3, r2
 800066a:	009b      	lsls	r3, r3, #2
 800066c:	4403      	add	r3, r0
 800066e:	6019      	str	r1, [r3, #0]
                             * task.
                             * The case of equal priority tasks sharing
                             * processing time (which happens when both
                             * preemption and time slicing are on) is
                             * handled below.*/
                            if( pxTCB->uxPriority > pxCurrentTCB->uxPriority )
 8000670:	69bb      	ldr	r3, [r7, #24]
 8000672:	6ada      	ldr	r2, [r3, #44]	@ 0x2c
 8000674:	4b1b      	ldr	r3, [pc, #108]	@ (80006e4 <xTaskIncrementTick+0x228>)
 8000676:	681b      	ldr	r3, [r3, #0]
 8000678:	6adb      	ldr	r3, [r3, #44]	@ 0x2c
 800067a:	429a      	cmp	r2, r3
 800067c:	f67f af5a 	bls.w	8000534 <xTaskIncrementTick+0x78>
                            {
                                xSwitchRequired = pdTRUE;
 8000680:	2301      	movs	r3, #1
 8000682:	627b      	str	r3, [r7, #36]	@ 0x24
                if( listLIST_IS_EMPTY( pxDelayedTaskList ) != pdFALSE )
 8000684:	e756      	b.n	8000534 <xTaskIncrementTick+0x78>
         * writer has not explicitly turned time slicing off. */
        #if ( ( configUSE_PREEMPTION == 1 ) && ( configUSE_TIME_SLICING == 1 ) )
        {
            #if ( configNUMBER_OF_CORES == 1 )
            {
                if( listCURRENT_LIST_LENGTH( &( pxReadyTasksLists[ pxCurrentTCB->uxPriority ] ) ) > 1U )
 8000686:	4b17      	ldr	r3, [pc, #92]	@ (80006e4 <xTaskIncrementTick+0x228>)
 8000688:	681b      	ldr	r3, [r3, #0]
 800068a:	6ada      	ldr	r2, [r3, #44]	@ 0x2c
 800068c:	4914      	ldr	r1, [pc, #80]	@ (80006e0 <xTaskIncrementTick+0x224>)
 800068e:	4613      	mov	r3, r2
 8000690:	009b      	lsls	r3, r3, #2
 8000692:	4413      	add	r3, r2
 8000694:	009b      	lsls	r3, r3, #2
 8000696:	440b      	add	r3, r1
 8000698:	681b      	ldr	r3, [r3, #0]
 800069a:	2b01      	cmp	r3, #1
 800069c:	d901      	bls.n	80006a2 <xTaskIncrementTick+0x1e6>
                {
                    xSwitchRequired = pdTRUE;
 800069e:	2301      	movs	r3, #1
 80006a0:	627b      	str	r3, [r7, #36]	@ 0x24
        #if ( configUSE_PREEMPTION == 1 )
        {
            #if ( configNUMBER_OF_CORES == 1 )
            {
                /* For single core the core ID is always 0. */
                if( xYieldPendings[ 0 ] != pdFALSE )
 80006a2:	4b11      	ldr	r3, [pc, #68]	@ (80006e8 <xTaskIncrementTick+0x22c>)
 80006a4:	681b      	ldr	r3, [r3, #0]
 80006a6:	2b00      	cmp	r3, #0
 80006a8:	d007      	beq.n	80006ba <xTaskIncrementTick+0x1fe>
                {
                    xSwitchRequired = pdTRUE;
 80006aa:	2301      	movs	r3, #1
 80006ac:	627b      	str	r3, [r7, #36]	@ 0x24
 80006ae:	e004      	b.n	80006ba <xTaskIncrementTick+0x1fe>
        }
        #endif /* #if ( configUSE_PREEMPTION == 1 ) */
    }
    else
    {
        xPendedTicks += 1U;
 80006b0:	4b0e      	ldr	r3, [pc, #56]	@ (80006ec <xTaskIncrementTick+0x230>)
 80006b2:	681b      	ldr	r3, [r3, #0]
 80006b4:	3301      	adds	r3, #1
 80006b6:	4a0d      	ldr	r2, [pc, #52]	@ (80006ec <xTaskIncrementTick+0x230>)
 80006b8:	6013      	str	r3, [r2, #0]
        #endif
    }

    traceRETURN_xTaskIncrementTick( xSwitchRequired );

    return xSwitchRequired;
 80006ba:	6a7b      	ldr	r3, [r7, #36]	@ 0x24
}
 80006bc:	4618      	mov	r0, r3
 80006be:	3728      	adds	r7, #40	@ 0x28
 80006c0:	46bd      	mov	sp, r7
 80006c2:	bd80      	pop	{r7, pc}
 80006c4:	20000514 	.word	0x20000514
 80006c8:	200004f8 	.word	0x200004f8
 80006cc:	200004f0 	.word	0x200004f0
 80006d0:	200004f4 	.word	0x200004f4
 80006d4:	2000050c 	.word	0x2000050c
 80006d8:	20000510 	.word	0x20000510
 80006dc:	200004fc 	.word	0x200004fc
 80006e0:	20000090 	.word	0x20000090
 80006e4:	2000008c 	.word	0x2000008c
 80006e8:	20000508 	.word	0x20000508
 80006ec:	20000504 	.word	0x20000504

080006f0 <vTaskSwitchContext>:
#endif /* configUSE_APPLICATION_TASK_TAG */
/*-----------------------------------------------------------*/

#if ( configNUMBER_OF_CORES == 1 )
    void vTaskSwitchContext( void )
    {
 80006f0:	b580      	push	{r7, lr}
 80006f2:	b086      	sub	sp, #24
 80006f4:	af00      	add	r7, sp, #0
        traceENTER_vTaskSwitchContext();

        if( uxSchedulerSuspended != ( UBaseType_t ) 0U )
 80006f6:	4b40      	ldr	r3, [pc, #256]	@ (80007f8 <vTaskSwitchContext+0x108>)
 80006f8:	681b      	ldr	r3, [r3, #0]
 80006fa:	2b00      	cmp	r3, #0
 80006fc:	d003      	beq.n	8000706 <vTaskSwitchContext+0x16>
        {
            /* The scheduler is currently suspended - do not allow a context
             * switch. */
            xYieldPendings[ 0 ] = pdTRUE;
 80006fe:	4b3f      	ldr	r3, [pc, #252]	@ (80007fc <vTaskSwitchContext+0x10c>)
 8000700:	2201      	movs	r2, #1
 8000702:	601a      	str	r2, [r3, #0]
            }
            #endif
        }

        traceRETURN_vTaskSwitchContext();
    }
 8000704:	e073      	b.n	80007ee <vTaskSwitchContext+0xfe>
            xYieldPendings[ 0 ] = pdFALSE;
 8000706:	4b3d      	ldr	r3, [pc, #244]	@ (80007fc <vTaskSwitchContext+0x10c>)
 8000708:	2200      	movs	r2, #0
 800070a:	601a      	str	r2, [r3, #0]
            taskCHECK_FOR_STACK_OVERFLOW();
 800070c:	4b3c      	ldr	r3, [pc, #240]	@ (8000800 <vTaskSwitchContext+0x110>)
 800070e:	681b      	ldr	r3, [r3, #0]
 8000710:	6b1b      	ldr	r3, [r3, #48]	@ 0x30
 8000712:	613b      	str	r3, [r7, #16]
 8000714:	f04f 33a5 	mov.w	r3, #2779096485	@ 0xa5a5a5a5
 8000718:	60fb      	str	r3, [r7, #12]
 800071a:	4b39      	ldr	r3, [pc, #228]	@ (8000800 <vTaskSwitchContext+0x110>)
 800071c:	681b      	ldr	r3, [r3, #0]
 800071e:	681a      	ldr	r2, [r3, #0]
 8000720:	4b37      	ldr	r3, [pc, #220]	@ (8000800 <vTaskSwitchContext+0x110>)
 8000722:	681b      	ldr	r3, [r3, #0]
 8000724:	6b1b      	ldr	r3, [r3, #48]	@ 0x30
 8000726:	429a      	cmp	r2, r3
 8000728:	d916      	bls.n	8000758 <vTaskSwitchContext+0x68>
 800072a:	693b      	ldr	r3, [r7, #16]
 800072c:	681b      	ldr	r3, [r3, #0]
 800072e:	68fa      	ldr	r2, [r7, #12]
 8000730:	429a      	cmp	r2, r3
 8000732:	d111      	bne.n	8000758 <vTaskSwitchContext+0x68>
 8000734:	693b      	ldr	r3, [r7, #16]
 8000736:	3304      	adds	r3, #4
 8000738:	681b      	ldr	r3, [r3, #0]
 800073a:	68fa      	ldr	r2, [r7, #12]
 800073c:	429a      	cmp	r2, r3
 800073e:	d10b      	bne.n	8000758 <vTaskSwitchContext+0x68>
 8000740:	693b      	ldr	r3, [r7, #16]
 8000742:	3308      	adds	r3, #8
 8000744:	681b      	ldr	r3, [r3, #0]
 8000746:	68fa      	ldr	r2, [r7, #12]
 8000748:	429a      	cmp	r2, r3
 800074a:	d105      	bne.n	8000758 <vTaskSwitchContext+0x68>
 800074c:	693b      	ldr	r3, [r7, #16]
 800074e:	330c      	adds	r3, #12
 8000750:	681b      	ldr	r3, [r3, #0]
 8000752:	68fa      	ldr	r2, [r7, #12]
 8000754:	429a      	cmp	r2, r3
 8000756:	d009      	beq.n	800076c <vTaskSwitchContext+0x7c>
 8000758:	4b29      	ldr	r3, [pc, #164]	@ (8000800 <vTaskSwitchContext+0x110>)
 800075a:	681b      	ldr	r3, [r3, #0]
 800075c:	3334      	adds	r3, #52	@ 0x34
 800075e:	60bb      	str	r3, [r7, #8]
 8000760:	4b27      	ldr	r3, [pc, #156]	@ (8000800 <vTaskSwitchContext+0x110>)
 8000762:	681b      	ldr	r3, [r3, #0]
 8000764:	68b9      	ldr	r1, [r7, #8]
 8000766:	4618      	mov	r0, r3
 8000768:	f7ff fe32 	bl	80003d0 <vApplicationStackOverflowHook>
            taskSELECT_HIGHEST_PRIORITY_TASK();
 800076c:	4b25      	ldr	r3, [pc, #148]	@ (8000804 <vTaskSwitchContext+0x114>)
 800076e:	681b      	ldr	r3, [r3, #0]
 8000770:	617b      	str	r3, [r7, #20]
 8000772:	e011      	b.n	8000798 <vTaskSwitchContext+0xa8>
 8000774:	697b      	ldr	r3, [r7, #20]
 8000776:	2b00      	cmp	r3, #0
 8000778:	d10b      	bne.n	8000792 <vTaskSwitchContext+0xa2>
    __asm volatile
 800077a:	f04f 0380 	mov.w	r3, #128	@ 0x80
 800077e:	f383 8811 	msr	BASEPRI, r3
 8000782:	f3bf 8f6f 	isb	sy
 8000786:	f3bf 8f4f 	dsb	sy
 800078a:	603b      	str	r3, [r7, #0]
}
 800078c:	bf00      	nop
 800078e:	bf00      	nop
 8000790:	e7fd      	b.n	800078e <vTaskSwitchContext+0x9e>
 8000792:	697b      	ldr	r3, [r7, #20]
 8000794:	3b01      	subs	r3, #1
 8000796:	617b      	str	r3, [r7, #20]
 8000798:	491b      	ldr	r1, [pc, #108]	@ (8000808 <vTaskSwitchContext+0x118>)
 800079a:	697a      	ldr	r2, [r7, #20]
 800079c:	4613      	mov	r3, r2
 800079e:	009b      	lsls	r3, r3, #2
 80007a0:	4413      	add	r3, r2
 80007a2:	009b      	lsls	r3, r3, #2
 80007a4:	440b      	add	r3, r1
 80007a6:	681b      	ldr	r3, [r3, #0]
 80007a8:	2b00      	cmp	r3, #0
 80007aa:	d0e3      	beq.n	8000774 <vTaskSwitchContext+0x84>
 80007ac:	697a      	ldr	r2, [r7, #20]
 80007ae:	4613      	mov	r3, r2
 80007b0:	009b      	lsls	r3, r3, #2
 80007b2:	4413      	add	r3, r2
 80007b4:	009b      	lsls	r3, r3, #2
 80007b6:	4a14      	ldr	r2, [pc, #80]	@ (8000808 <vTaskSwitchContext+0x118>)
 80007b8:	4413      	add	r3, r2
 80007ba:	607b      	str	r3, [r7, #4]
 80007bc:	687b      	ldr	r3, [r7, #4]
 80007be:	685b      	ldr	r3, [r3, #4]
 80007c0:	685a      	ldr	r2, [r3, #4]
 80007c2:	687b      	ldr	r3, [r7, #4]
 80007c4:	605a      	str	r2, [r3, #4]
 80007c6:	687b      	ldr	r3, [r7, #4]
 80007c8:	685a      	ldr	r2, [r3, #4]
 80007ca:	687b      	ldr	r3, [r7, #4]
 80007cc:	3308      	adds	r3, #8
 80007ce:	429a      	cmp	r2, r3
 80007d0:	d103      	bne.n	80007da <vTaskSwitchContext+0xea>
 80007d2:	687b      	ldr	r3, [r7, #4]
 80007d4:	68da      	ldr	r2, [r3, #12]
 80007d6:	687b      	ldr	r3, [r7, #4]
 80007d8:	605a      	str	r2, [r3, #4]
 80007da:	687b      	ldr	r3, [r7, #4]
 80007dc:	685b      	ldr	r3, [r3, #4]
 80007de:	68db      	ldr	r3, [r3, #12]
 80007e0:	4a07      	ldr	r2, [pc, #28]	@ (8000800 <vTaskSwitchContext+0x110>)
 80007e2:	6013      	str	r3, [r2, #0]
 80007e4:	4a07      	ldr	r2, [pc, #28]	@ (8000804 <vTaskSwitchContext+0x114>)
 80007e6:	697b      	ldr	r3, [r7, #20]
 80007e8:	6013      	str	r3, [r2, #0]
            portTASK_SWITCH_HOOK( pxCurrentTCB );
 80007ea:	4b05      	ldr	r3, [pc, #20]	@ (8000800 <vTaskSwitchContext+0x110>)
 80007ec:	681b      	ldr	r3, [r3, #0]
    }
 80007ee:	bf00      	nop
 80007f0:	3718      	adds	r7, #24
 80007f2:	46bd      	mov	sp, r7
 80007f4:	bd80      	pop	{r7, pc}
 80007f6:	bf00      	nop
 80007f8:	20000514 	.word	0x20000514
 80007fc:	20000508 	.word	0x20000508
 8000800:	2000008c 	.word	0x2000008c
 8000804:	200004fc 	.word	0x200004fc
 8000808:	20000090 	.word	0x20000090

0800080c <prvResetNextTaskUnblockTime>:

#endif /* INCLUDE_vTaskDelete */
/*-----------------------------------------------------------*/

static void prvResetNextTaskUnblockTime( void )
{
 800080c:	b480      	push	{r7}
 800080e:	af00      	add	r7, sp, #0
    if( listLIST_IS_EMPTY( pxDelayedTaskList ) != pdFALSE )
 8000810:	4b0a      	ldr	r3, [pc, #40]	@ (800083c <prvResetNextTaskUnblockTime+0x30>)
 8000812:	681b      	ldr	r3, [r3, #0]
 8000814:	681b      	ldr	r3, [r3, #0]
 8000816:	2b00      	cmp	r3, #0
 8000818:	d104      	bne.n	8000824 <prvResetNextTaskUnblockTime+0x18>
    {
        /* The new current delayed list is empty.  Set xNextTaskUnblockTime to
         * the maximum possible value so it is  extremely unlikely that the
         * if( xTickCount >= xNextTaskUnblockTime ) test will pass until
         * there is an item in the delayed list. */
        xNextTaskUnblockTime = portMAX_DELAY;
 800081a:	4b09      	ldr	r3, [pc, #36]	@ (8000840 <prvResetNextTaskUnblockTime+0x34>)
 800081c:	f04f 32ff 	mov.w	r2, #4294967295
 8000820:	601a      	str	r2, [r3, #0]
         * the item at the head of the delayed list.  This is the time at
         * which the task at the head of the delayed list should be removed
         * from the Blocked state. */
        xNextTaskUnblockTime = listGET_ITEM_VALUE_OF_HEAD_ENTRY( pxDelayedTaskList );
    }
}
 8000822:	e005      	b.n	8000830 <prvResetNextTaskUnblockTime+0x24>
        xNextTaskUnblockTime = listGET_ITEM_VALUE_OF_HEAD_ENTRY( pxDelayedTaskList );
 8000824:	4b05      	ldr	r3, [pc, #20]	@ (800083c <prvResetNextTaskUnblockTime+0x30>)
 8000826:	681b      	ldr	r3, [r3, #0]
 8000828:	68db      	ldr	r3, [r3, #12]
 800082a:	681b      	ldr	r3, [r3, #0]
 800082c:	4a04      	ldr	r2, [pc, #16]	@ (8000840 <prvResetNextTaskUnblockTime+0x34>)
 800082e:	6013      	str	r3, [r2, #0]
}
 8000830:	bf00      	nop
 8000832:	46bd      	mov	sp, r7
 8000834:	f85d 7b04 	ldr.w	r7, [sp], #4
 8000838:	4770      	bx	lr
 800083a:	bf00      	nop
 800083c:	200004f0 	.word	0x200004f0
 8000840:	20000510 	.word	0x20000510

08000844 <xTaskGetSchedulerState>:
/*-----------------------------------------------------------*/

#if ( ( INCLUDE_xTaskGetSchedulerState == 1 ) || ( configUSE_TIMERS == 1 ) )

    BaseType_t xTaskGetSchedulerState( void )
    {
 8000844:	b480      	push	{r7}
 8000846:	b083      	sub	sp, #12
 8000848:	af00      	add	r7, sp, #0
        BaseType_t xReturn;

        traceENTER_xTaskGetSchedulerState();

        if( xSchedulerRunning == pdFALSE )
 800084a:	4b0b      	ldr	r3, [pc, #44]	@ (8000878 <xTaskGetSchedulerState+0x34>)
 800084c:	681b      	ldr	r3, [r3, #0]
 800084e:	2b00      	cmp	r3, #0
 8000850:	d102      	bne.n	8000858 <xTaskGetSchedulerState+0x14>
        {
            xReturn = taskSCHEDULER_NOT_STARTED;
 8000852:	2301      	movs	r3, #1
 8000854:	607b      	str	r3, [r7, #4]
 8000856:	e008      	b.n	800086a <xTaskGetSchedulerState+0x26>
        {
            #if ( configNUMBER_OF_CORES > 1 )
                taskENTER_CRITICAL();
            #endif
            {
                if( uxSchedulerSuspended == ( UBaseType_t ) 0U )
 8000858:	4b08      	ldr	r3, [pc, #32]	@ (800087c <xTaskGetSchedulerState+0x38>)
 800085a:	681b      	ldr	r3, [r3, #0]
 800085c:	2b00      	cmp	r3, #0
 800085e:	d102      	bne.n	8000866 <xTaskGetSchedulerState+0x22>
                {
                    xReturn = taskSCHEDULER_RUNNING;
 8000860:	2302      	movs	r3, #2
 8000862:	607b      	str	r3, [r7, #4]
 8000864:	e001      	b.n	800086a <xTaskGetSchedulerState+0x26>
                }
                else
                {
                    xReturn = taskSCHEDULER_SUSPENDED;
 8000866:	2300      	movs	r3, #0
 8000868:	607b      	str	r3, [r7, #4]
            #endif
        }

        traceRETURN_xTaskGetSchedulerState( xReturn );

        return xReturn;
 800086a:	687b      	ldr	r3, [r7, #4]
    }
 800086c:	4618      	mov	r0, r3
 800086e:	370c      	adds	r7, #12
 8000870:	46bd      	mov	sp, r7
 8000872:	f85d 7b04 	ldr.w	r7, [sp], #4
 8000876:	4770      	bx	lr
 8000878:	20000500 	.word	0x20000500
 800087c:	20000514 	.word	0x20000514

08000880 <ADC_Init>:
 * @brief Initialize ADC1 for single conversion on the selected channel.
 *
 * GPIO configuration is done via GPIO_Pin_Setup() with ANALOG_INPUT mode.
 */
void ADC_Init(void)
{
 8000880:	b580      	push	{r7, lr}
 8000882:	b082      	sub	sp, #8
 8000884:	af00      	add	r7, sp, #0
    /* ----- 1. Enable clocks ----- */
    RCC->AHB1ENR |= RCC_AHB1ENR_GPIOAEN;   // GPIOA clock (needed even when using GPIO_Pin_Setup)
 8000886:	4b30      	ldr	r3, [pc, #192]	@ (8000948 <ADC_Init+0xc8>)
 8000888:	6b1b      	ldr	r3, [r3, #48]	@ 0x30
 800088a:	4a2f      	ldr	r2, [pc, #188]	@ (8000948 <ADC_Init+0xc8>)
 800088c:	f043 0301 	orr.w	r3, r3, #1
 8000890:	6313      	str	r3, [r2, #48]	@ 0x30
    RCC->APB2ENR |= RCC_APB2ENR_ADC1EN;    // ADC1 clock
 8000892:	4b2d      	ldr	r3, [pc, #180]	@ (8000948 <ADC_Init+0xc8>)
 8000894:	6c5b      	ldr	r3, [r3, #68]	@ 0x44
 8000896:	4a2c      	ldr	r2, [pc, #176]	@ (8000948 <ADC_Init+0xc8>)
 8000898:	f443 7380 	orr.w	r3, r3, #256	@ 0x100
 800089c:	6453      	str	r3, [r2, #68]	@ 0x44

    /* ----- 2. Configure GPIO as analog input using GPIO library ----- */
    GPIO_Pin_Setup(ADC_PORT, ADC_PIN, ANALOG_INPUT, NONE);
 800089e:	2300      	movs	r3, #0
 80008a0:	22c0      	movs	r2, #192	@ 0xc0
 80008a2:	2104      	movs	r1, #4
 80008a4:	4829      	ldr	r0, [pc, #164]	@ (800094c <ADC_Init+0xcc>)
 80008a6:	f000 fa79 	bl	8000d9c <GPIO_Pin_Setup>
    // ANALOG_INPUT = 0xC0 (MODER=11, PUPDR=00, OTYPER/OSPEEDR ignored)

    /* ----- 3. Configure ADC common registers (prescaler) ----- */
    ADC->CCR &= ~(ADC_CCR_ADCPRE_Msk | ADC_CCR_TSVREFE_Msk);
 80008aa:	4b29      	ldr	r3, [pc, #164]	@ (8000950 <ADC_Init+0xd0>)
 80008ac:	685b      	ldr	r3, [r3, #4]
 80008ae:	4a28      	ldr	r2, [pc, #160]	@ (8000950 <ADC_Init+0xd0>)
 80008b0:	f423 0303 	bic.w	r3, r3, #8585216	@ 0x830000
 80008b4:	6053      	str	r3, [r2, #4]
    ADC->CCR |= (ADC_PRESCALER << ADC_CCR_ADCPRE_Pos);
 80008b6:	4b26      	ldr	r3, [pc, #152]	@ (8000950 <ADC_Init+0xd0>)
 80008b8:	685b      	ldr	r3, [r3, #4]
 80008ba:	4a25      	ldr	r2, [pc, #148]	@ (8000950 <ADC_Init+0xd0>)
 80008bc:	f443 3340 	orr.w	r3, r3, #196608	@ 0x30000
 80008c0:	6053      	str	r3, [r2, #4]

    /* ----- 4. Configure ADC1 ----- */
    // Disable ADC before config
    ADC1->CR2 &= ~ADC_CR2_ADON;
 80008c2:	4b24      	ldr	r3, [pc, #144]	@ (8000954 <ADC_Init+0xd4>)
 80008c4:	689b      	ldr	r3, [r3, #8]
 80008c6:	4a23      	ldr	r2, [pc, #140]	@ (8000954 <ADC_Init+0xd4>)
 80008c8:	f023 0301 	bic.w	r3, r3, #1
 80008cc:	6093      	str	r3, [r2, #8]

    // Reset configuration registers
    ADC1->CR1 = 0;
 80008ce:	4b21      	ldr	r3, [pc, #132]	@ (8000954 <ADC_Init+0xd4>)
 80008d0:	2200      	movs	r2, #0
 80008d2:	605a      	str	r2, [r3, #4]
    ADC1->CR2 = 0;
 80008d4:	4b1f      	ldr	r3, [pc, #124]	@ (8000954 <ADC_Init+0xd4>)
 80008d6:	2200      	movs	r2, #0
 80008d8:	609a      	str	r2, [r3, #8]
    ADC1->SQR1 = 0;
 80008da:	4b1e      	ldr	r3, [pc, #120]	@ (8000954 <ADC_Init+0xd4>)
 80008dc:	2200      	movs	r2, #0
 80008de:	62da      	str	r2, [r3, #44]	@ 0x2c
    ADC1->SQR2 = 0;
 80008e0:	4b1c      	ldr	r3, [pc, #112]	@ (8000954 <ADC_Init+0xd4>)
 80008e2:	2200      	movs	r2, #0
 80008e4:	631a      	str	r2, [r3, #48]	@ 0x30
    ADC1->SQR3 = 0;
 80008e6:	4b1b      	ldr	r3, [pc, #108]	@ (8000954 <ADC_Init+0xd4>)
 80008e8:	2200      	movs	r2, #0
 80008ea:	635a      	str	r2, [r3, #52]	@ 0x34

    // Single conversion mode, right-aligned data
    ADC1->CR2 = ADC_CR2_ALIGN;   // ALIGN=0 (right), CONT=0
 80008ec:	4b19      	ldr	r3, [pc, #100]	@ (8000954 <ADC_Init+0xd4>)
 80008ee:	f44f 6200 	mov.w	r2, #2048	@ 0x800
 80008f2:	609a      	str	r2, [r3, #8]

    // Enable ADC
    ADC1->CR2 |= ADC_CR2_ADON;
 80008f4:	4b17      	ldr	r3, [pc, #92]	@ (8000954 <ADC_Init+0xd4>)
 80008f6:	689b      	ldr	r3, [r3, #8]
 80008f8:	4a16      	ldr	r2, [pc, #88]	@ (8000954 <ADC_Init+0xd4>)
 80008fa:	f043 0301 	orr.w	r3, r3, #1
 80008fe:	6093      	str	r3, [r2, #8]

    // Stabilization delay
    for (volatile uint32_t i = 0; i < 1000; i++);
 8000900:	2300      	movs	r3, #0
 8000902:	607b      	str	r3, [r7, #4]
 8000904:	e002      	b.n	800090c <ADC_Init+0x8c>
 8000906:	687b      	ldr	r3, [r7, #4]
 8000908:	3301      	adds	r3, #1
 800090a:	607b      	str	r3, [r7, #4]
 800090c:	687b      	ldr	r3, [r7, #4]
 800090e:	f5b3 7f7a 	cmp.w	r3, #1000	@ 0x3e8
 8000912:	d3f8      	bcc.n	8000906 <ADC_Init+0x86>
		while (ADC1->CR2 & ADC_CR2_RSTCAL);
		ADC1->CR2 |= ADC_CR2_CAL;
		while (ADC1->CR2 & ADC_CR2_CAL);
	#endif
    /* ----- 6. Sampling time and channel sequence ----- */
    ADC_SMPR_REG &= ~(0x7U << ADC_SMPR_SHIFT);
 8000914:	4b0f      	ldr	r3, [pc, #60]	@ (8000954 <ADC_Init+0xd4>)
 8000916:	691b      	ldr	r3, [r3, #16]
 8000918:	4a0e      	ldr	r2, [pc, #56]	@ (8000954 <ADC_Init+0xd4>)
 800091a:	f423 43e0 	bic.w	r3, r3, #28672	@ 0x7000
 800091e:	6113      	str	r3, [r2, #16]
    ADC_SMPR_REG |= ((ADC_SAMPLING_TIME & 0x7) << ADC_SMPR_SHIFT);
 8000920:	4b0c      	ldr	r3, [pc, #48]	@ (8000954 <ADC_Init+0xd4>)
 8000922:	691b      	ldr	r3, [r3, #16]
 8000924:	4a0b      	ldr	r2, [pc, #44]	@ (8000954 <ADC_Init+0xd4>)
 8000926:	f443 43e0 	orr.w	r3, r3, #28672	@ 0x7000
 800092a:	6113      	str	r3, [r2, #16]

    ADC1->SQR1 &= ~ADC_SQR1_L_Msk;          // 1 conversion
 800092c:	4b09      	ldr	r3, [pc, #36]	@ (8000954 <ADC_Init+0xd4>)
 800092e:	6adb      	ldr	r3, [r3, #44]	@ 0x2c
 8000930:	4a08      	ldr	r2, [pc, #32]	@ (8000954 <ADC_Init+0xd4>)
 8000932:	f423 0370 	bic.w	r3, r3, #15728640	@ 0xf00000
 8000936:	62d3      	str	r3, [r2, #44]	@ 0x2c
    ADC1->SQR3 = (ADC_CHANNEL_MASK & 0x1F); // Channel number
 8000938:	4b06      	ldr	r3, [pc, #24]	@ (8000954 <ADC_Init+0xd4>)
 800093a:	2204      	movs	r2, #4
 800093c:	635a      	str	r2, [r3, #52]	@ 0x34
}
 800093e:	bf00      	nop
 8000940:	3708      	adds	r7, #8
 8000942:	46bd      	mov	sp, r7
 8000944:	bd80      	pop	{r7, pc}
 8000946:	bf00      	nop
 8000948:	40023800 	.word	0x40023800
 800094c:	40020000 	.word	0x40020000
 8000950:	40012300 	.word	0x40012300
 8000954:	40012000 	.word	0x40012000

08000958 <ADC_Read>:
/**
 * @brief Start conversion and read 12-bit result.
 * @return ADC value (0–4095) or 0xFFFF on timeout.
 */
uint16_t ADC_Read(void)
{
 8000958:	b480      	push	{r7}
 800095a:	b083      	sub	sp, #12
 800095c:	af00      	add	r7, sp, #0
    uint32_t timeout = ADC_TIMEOUT;
 800095e:	4b12      	ldr	r3, [pc, #72]	@ (80009a8 <ADC_Read+0x50>)
 8000960:	607b      	str	r3, [r7, #4]

    // Start conversion
    ADC1->CR2 |= ADC_CR2_SWSTART;
 8000962:	4b12      	ldr	r3, [pc, #72]	@ (80009ac <ADC_Read+0x54>)
 8000964:	689b      	ldr	r3, [r3, #8]
 8000966:	4a11      	ldr	r2, [pc, #68]	@ (80009ac <ADC_Read+0x54>)
 8000968:	f043 4380 	orr.w	r3, r3, #1073741824	@ 0x40000000
 800096c:	6093      	str	r3, [r2, #8]

    // Wait for End of Conversion
    while (!(ADC1->SR & ADC_SR_EOC)) {
 800096e:	e008      	b.n	8000982 <ADC_Read+0x2a>
        if (--timeout == 0) return 0xFFFF;
 8000970:	687b      	ldr	r3, [r7, #4]
 8000972:	3b01      	subs	r3, #1
 8000974:	607b      	str	r3, [r7, #4]
 8000976:	687b      	ldr	r3, [r7, #4]
 8000978:	2b00      	cmp	r3, #0
 800097a:	d102      	bne.n	8000982 <ADC_Read+0x2a>
 800097c:	f64f 73ff 	movw	r3, #65535	@ 0xffff
 8000980:	e00b      	b.n	800099a <ADC_Read+0x42>
    while (!(ADC1->SR & ADC_SR_EOC)) {
 8000982:	4b0a      	ldr	r3, [pc, #40]	@ (80009ac <ADC_Read+0x54>)
 8000984:	681b      	ldr	r3, [r3, #0]
 8000986:	f003 0302 	and.w	r3, r3, #2
 800098a:	2b00      	cmp	r3, #0
 800098c:	d0f0      	beq.n	8000970 <ADC_Read+0x18>
    }

    // Read result (clears EOC automatically)
    return (uint16_t)(ADC1->DR & 0x0FFF);
 800098e:	4b07      	ldr	r3, [pc, #28]	@ (80009ac <ADC_Read+0x54>)
 8000990:	6cdb      	ldr	r3, [r3, #76]	@ 0x4c
 8000992:	b29b      	uxth	r3, r3
 8000994:	f3c3 030b 	ubfx	r3, r3, #0, #12
 8000998:	b29b      	uxth	r3, r3
}
 800099a:	4618      	mov	r0, r3
 800099c:	370c      	adds	r7, #12
 800099e:	46bd      	mov	sp, r7
 80009a0:	f85d 7b04 	ldr.w	r7, [sp], #4
 80009a4:	4770      	bx	lr
 80009a6:	bf00      	nop
 80009a8:	000186a0 	.word	0x000186a0
 80009ac:	40012000 	.word	0x40012000

080009b0 <BH1750_Init>:
#include "delay.h"

static I2C_Config BH1750_I2C;

void BH1750_Init(I2C_TypeDef *I2C)
{
 80009b0:	b580      	push	{r7, lr}
 80009b2:	b082      	sub	sp, #8
 80009b4:	af00      	add	r7, sp, #0
 80009b6:	6078      	str	r0, [r7, #4]
    BH1750_I2C.I2C = I2C;
 80009b8:	4a0d      	ldr	r2, [pc, #52]	@ (80009f0 <BH1750_Init+0x40>)
 80009ba:	687b      	ldr	r3, [r7, #4]
 80009bc:	6013      	str	r3, [r2, #0]
    BH1750_I2C.mode = I2C_Fast_Mode;
 80009be:	4b0c      	ldr	r3, [pc, #48]	@ (80009f0 <BH1750_Init+0x40>)
 80009c0:	2201      	movs	r2, #1
 80009c2:	711a      	strb	r2, [r3, #4]
    I2C_Master_Init(BH1750_I2C);
 80009c4:	4b0a      	ldr	r3, [pc, #40]	@ (80009f0 <BH1750_Init+0x40>)
 80009c6:	e893 0003 	ldmia.w	r3, {r0, r1}
 80009ca:	f000 fb67 	bl	800109c <I2C_Master_Init>

    // Power on and reset sensor
    BH1750_SendCommand(BH1750_POWER_ON);
 80009ce:	2001      	movs	r0, #1
 80009d0:	f000 f810 	bl	80009f4 <BH1750_SendCommand>
    DWT_delay_ms(10);
 80009d4:	200a      	movs	r0, #10
 80009d6:	f001 fc0d 	bl	80021f4 <DWT_delay_ms>
    BH1750_SendCommand(BH1750_RESET);
 80009da:	2007      	movs	r0, #7
 80009dc:	f000 f80a 	bl	80009f4 <BH1750_SendCommand>
    DWT_delay_ms(10);
 80009e0:	200a      	movs	r0, #10
 80009e2:	f001 fc07 	bl	80021f4 <DWT_delay_ms>
}
 80009e6:	bf00      	nop
 80009e8:	3708      	adds	r7, #8
 80009ea:	46bd      	mov	sp, r7
 80009ec:	bd80      	pop	{r7, pc}
 80009ee:	bf00      	nop
 80009f0:	20000518 	.word	0x20000518

080009f4 <BH1750_SendCommand>:

void BH1750_SendCommand(uint8_t cmd)
{
 80009f4:	b580      	push	{r7, lr}
 80009f6:	b082      	sub	sp, #8
 80009f8:	af00      	add	r7, sp, #0
 80009fa:	4603      	mov	r3, r0
 80009fc:	71fb      	strb	r3, [r7, #7]
    if(I2C_Master_Start(BH1750_I2C) != 0) return;
 80009fe:	4b14      	ldr	r3, [pc, #80]	@ (8000a50 <BH1750_SendCommand+0x5c>)
 8000a00:	e893 0003 	ldmia.w	r3, {r0, r1}
 8000a04:	f000 fbd0 	bl	80011a8 <I2C_Master_Start>
 8000a08:	4603      	mov	r3, r0
 8000a0a:	2b00      	cmp	r3, #0
 8000a0c:	d117      	bne.n	8000a3e <BH1750_SendCommand+0x4a>
	if(I2C_Master_Address(BH1750_I2C, BH1750_ADDRESS, 0) != 0) return;
 8000a0e:	4910      	ldr	r1, [pc, #64]	@ (8000a50 <BH1750_SendCommand+0x5c>)
 8000a10:	2300      	movs	r3, #0
 8000a12:	2223      	movs	r2, #35	@ 0x23
 8000a14:	c903      	ldmia	r1, {r0, r1}
 8000a16:	f000 fbef 	bl	80011f8 <I2C_Master_Address>
 8000a1a:	4603      	mov	r3, r0
 8000a1c:	2b00      	cmp	r3, #0
 8000a1e:	d110      	bne.n	8000a42 <BH1750_SendCommand+0x4e>
	if(I2C_Master_Send_Byte(BH1750_I2C, cmd) != 0) return;
 8000a20:	79fb      	ldrb	r3, [r7, #7]
 8000a22:	490b      	ldr	r1, [pc, #44]	@ (8000a50 <BH1750_SendCommand+0x5c>)
 8000a24:	461a      	mov	r2, r3
 8000a26:	c903      	ldmia	r1, {r0, r1}
 8000a28:	f000 fc40 	bl	80012ac <I2C_Master_Send_Byte>
 8000a2c:	4603      	mov	r3, r0
 8000a2e:	2b00      	cmp	r3, #0
 8000a30:	d109      	bne.n	8000a46 <BH1750_SendCommand+0x52>
    I2C_Master_Stop(BH1750_I2C);
 8000a32:	4b07      	ldr	r3, [pc, #28]	@ (8000a50 <BH1750_SendCommand+0x5c>)
 8000a34:	e893 0003 	ldmia.w	r3, {r0, r1}
 8000a38:	f000 fd47 	bl	80014ca <I2C_Master_Stop>
 8000a3c:	e004      	b.n	8000a48 <BH1750_SendCommand+0x54>
    if(I2C_Master_Start(BH1750_I2C) != 0) return;
 8000a3e:	bf00      	nop
 8000a40:	e002      	b.n	8000a48 <BH1750_SendCommand+0x54>
	if(I2C_Master_Address(BH1750_I2C, BH1750_ADDRESS, 0) != 0) return;
 8000a42:	bf00      	nop
 8000a44:	e000      	b.n	8000a48 <BH1750_SendCommand+0x54>
	if(I2C_Master_Send_Byte(BH1750_I2C, cmd) != 0) return;
 8000a46:	bf00      	nop
}
 8000a48:	3708      	adds	r7, #8
 8000a4a:	46bd      	mov	sp, r7
 8000a4c:	bd80      	pop	{r7, pc}
 8000a4e:	bf00      	nop
 8000a50:	20000518 	.word	0x20000518

08000a54 <BH1750_ReadMeasurement>:

uint16_t BH1750_ReadMeasurement(void)
{
 8000a54:	b580      	push	{r7, lr}
 8000a56:	b082      	sub	sp, #8
 8000a58:	af00      	add	r7, sp, #0
    uint8_t buf[2] = {0,0};
 8000a5a:	2300      	movs	r3, #0
 8000a5c:	80bb      	strh	r3, [r7, #4]

    if(I2C_Master_Start(BH1750_I2C) != 0) return 0;
 8000a5e:	4b1c      	ldr	r3, [pc, #112]	@ (8000ad0 <BH1750_ReadMeasurement+0x7c>)
 8000a60:	e893 0003 	ldmia.w	r3, {r0, r1}
 8000a64:	f000 fba0 	bl	80011a8 <I2C_Master_Start>
 8000a68:	4603      	mov	r3, r0
 8000a6a:	2b00      	cmp	r3, #0
 8000a6c:	d001      	beq.n	8000a72 <BH1750_ReadMeasurement+0x1e>
 8000a6e:	2300      	movs	r3, #0
 8000a70:	e029      	b.n	8000ac6 <BH1750_ReadMeasurement+0x72>
	if(I2C_Master_Address(BH1750_I2C, BH1750_ADDRESS, 1) != 0) return 0;
 8000a72:	4917      	ldr	r1, [pc, #92]	@ (8000ad0 <BH1750_ReadMeasurement+0x7c>)
 8000a74:	2301      	movs	r3, #1
 8000a76:	2223      	movs	r2, #35	@ 0x23
 8000a78:	c903      	ldmia	r1, {r0, r1}
 8000a7a:	f000 fbbd 	bl	80011f8 <I2C_Master_Address>
 8000a7e:	4603      	mov	r3, r0
 8000a80:	2b00      	cmp	r3, #0
 8000a82:	d001      	beq.n	8000a88 <BH1750_ReadMeasurement+0x34>
 8000a84:	2300      	movs	r3, #0
 8000a86:	e01e      	b.n	8000ac6 <BH1750_ReadMeasurement+0x72>

    // Read two bytes with proper ACK/NACK handling
    if(I2C_Master_Receive_Buffer(BH1750_I2C, buf, 2) != 0) {
 8000a88:	1d3a      	adds	r2, r7, #4
 8000a8a:	4911      	ldr	r1, [pc, #68]	@ (8000ad0 <BH1750_ReadMeasurement+0x7c>)
 8000a8c:	2302      	movs	r3, #2
 8000a8e:	c903      	ldmia	r1, {r0, r1}
 8000a90:	f000 fc92 	bl	80013b8 <I2C_Master_Receive_Buffer>
 8000a94:	4603      	mov	r3, r0
 8000a96:	2b00      	cmp	r3, #0
 8000a98:	d006      	beq.n	8000aa8 <BH1750_ReadMeasurement+0x54>
        I2C_Master_Stop(BH1750_I2C);
 8000a9a:	4b0d      	ldr	r3, [pc, #52]	@ (8000ad0 <BH1750_ReadMeasurement+0x7c>)
 8000a9c:	e893 0003 	ldmia.w	r3, {r0, r1}
 8000aa0:	f000 fd13 	bl	80014ca <I2C_Master_Stop>
        return 0;
 8000aa4:	2300      	movs	r3, #0
 8000aa6:	e00e      	b.n	8000ac6 <BH1750_ReadMeasurement+0x72>
    }
    I2C_Master_Stop(BH1750_I2C);
 8000aa8:	4b09      	ldr	r3, [pc, #36]	@ (8000ad0 <BH1750_ReadMeasurement+0x7c>)
 8000aaa:	e893 0003 	ldmia.w	r3, {r0, r1}
 8000aae:	f000 fd0c 	bl	80014ca <I2C_Master_Stop>

    uint16_t raw = ((uint16_t)buf[0] << 8) | (uint16_t)buf[1];
 8000ab2:	793b      	ldrb	r3, [r7, #4]
 8000ab4:	b21b      	sxth	r3, r3
 8000ab6:	021b      	lsls	r3, r3, #8
 8000ab8:	b21a      	sxth	r2, r3
 8000aba:	797b      	ldrb	r3, [r7, #5]
 8000abc:	b21b      	sxth	r3, r3
 8000abe:	4313      	orrs	r3, r2
 8000ac0:	b21b      	sxth	r3, r3
 8000ac2:	80fb      	strh	r3, [r7, #6]
    return raw;
 8000ac4:	88fb      	ldrh	r3, [r7, #6]
}
 8000ac6:	4618      	mov	r0, r3
 8000ac8:	3708      	adds	r7, #8
 8000aca:	46bd      	mov	sp, r7
 8000acc:	bd80      	pop	{r7, pc}
 8000ace:	bf00      	nop
 8000ad0:	20000518 	.word	0x20000518

08000ad4 <BH1750_ReadLux>:

float BH1750_ReadLux(uint8_t mode)
{
 8000ad4:	b580      	push	{r7, lr}
 8000ad6:	b084      	sub	sp, #16
 8000ad8:	af00      	add	r7, sp, #0
 8000ada:	4603      	mov	r3, r0
 8000adc:	71fb      	strb	r3, [r7, #7]
    uint16_t raw = 0;
 8000ade:	2300      	movs	r3, #0
 8000ae0:	81fb      	strh	r3, [r7, #14]
    BH1750_SendCommand(BH1750_POWER_ON);
 8000ae2:	2001      	movs	r0, #1
 8000ae4:	f7ff ff86 	bl	80009f4 <BH1750_SendCommand>
    DWT_delay_ms(10);
 8000ae8:	200a      	movs	r0, #10
 8000aea:	f001 fb83 	bl	80021f4 <DWT_delay_ms>
    BH1750_SendCommand(mode);
 8000aee:	79fb      	ldrb	r3, [r7, #7]
 8000af0:	4618      	mov	r0, r3
 8000af2:	f7ff ff7f 	bl	80009f4 <BH1750_SendCommand>
    DWT_delay_ms(120);
 8000af6:	2078      	movs	r0, #120	@ 0x78
 8000af8:	f001 fb7c 	bl	80021f4 <DWT_delay_ms>
    raw = BH1750_ReadMeasurement();
 8000afc:	f7ff ffaa 	bl	8000a54 <BH1750_ReadMeasurement>
 8000b00:	4603      	mov	r3, r0
 8000b02:	81fb      	strh	r3, [r7, #14]
    if (raw == 0) {
 8000b04:	89fb      	ldrh	r3, [r7, #14]
 8000b06:	2b00      	cmp	r3, #0
 8000b08:	d101      	bne.n	8000b0e <BH1750_ReadLux+0x3a>
        return -1.0f; // Indicate error
 8000b0a:	4b0c      	ldr	r3, [pc, #48]	@ (8000b3c <BH1750_ReadLux+0x68>)
 8000b0c:	e00e      	b.n	8000b2c <BH1750_ReadLux+0x58>
    }
    BH1750_SendCommand(BH1750_POWER_DOWN);
 8000b0e:	2000      	movs	r0, #0
 8000b10:	f7ff ff70 	bl	80009f4 <BH1750_SendCommand>
    float lux = (float)raw / 1.2f;
 8000b14:	89fb      	ldrh	r3, [r7, #14]
 8000b16:	ee07 3a90 	vmov	s15, r3
 8000b1a:	eeb8 7a67 	vcvt.f32.u32	s14, s15
 8000b1e:	eddf 6a08 	vldr	s13, [pc, #32]	@ 8000b40 <BH1750_ReadLux+0x6c>
 8000b22:	eec7 7a26 	vdiv.f32	s15, s14, s13
 8000b26:	edc7 7a02 	vstr	s15, [r7, #8]
    return lux;
 8000b2a:	68bb      	ldr	r3, [r7, #8]
}
 8000b2c:	ee07 3a90 	vmov	s15, r3
 8000b30:	eeb0 0a67 	vmov.f32	s0, s15
 8000b34:	3710      	adds	r7, #16
 8000b36:	46bd      	mov	sp, r7
 8000b38:	bd80      	pop	{r7, pc}
 8000b3a:	bf00      	nop
 8000b3c:	bf800000 	.word	0xbf800000
 8000b40:	3f99999a 	.word	0x3f99999a

08000b44 <DHT11_Init>:
static uint16_t DHT11_PIN;

#define DHT11_WAIT_TIMEOUT_US 200U

void DHT11_Init(GPIO_TypeDef *port, uint8_t pin)
{
 8000b44:	b480      	push	{r7}
 8000b46:	b083      	sub	sp, #12
 8000b48:	af00      	add	r7, sp, #0
 8000b4a:	6078      	str	r0, [r7, #4]
 8000b4c:	460b      	mov	r3, r1
 8000b4e:	70fb      	strb	r3, [r7, #3]
	DHT11_PORT = port;
 8000b50:	4a06      	ldr	r2, [pc, #24]	@ (8000b6c <DHT11_Init+0x28>)
 8000b52:	687b      	ldr	r3, [r7, #4]
 8000b54:	6013      	str	r3, [r2, #0]
	DHT11_PIN = pin;
 8000b56:	78fb      	ldrb	r3, [r7, #3]
 8000b58:	b29a      	uxth	r2, r3
 8000b5a:	4b05      	ldr	r3, [pc, #20]	@ (8000b70 <DHT11_Init+0x2c>)
 8000b5c:	801a      	strh	r2, [r3, #0]
}
 8000b5e:	bf00      	nop
 8000b60:	370c      	adds	r7, #12
 8000b62:	46bd      	mov	sp, r7
 8000b64:	f85d 7b04 	ldr.w	r7, [sp], #4
 8000b68:	4770      	bx	lr
 8000b6a:	bf00      	nop
 8000b6c:	20000520 	.word	0x20000520
 8000b70:	20000524 	.word	0x20000524

08000b74 <wait_for_state>:
static uint8_t wait_for_state(uint8_t state, uint32_t timeout_us)
{
 8000b74:	b580      	push	{r7, lr}
 8000b76:	b084      	sub	sp, #16
 8000b78:	af00      	add	r7, sp, #0
 8000b7a:	4603      	mov	r3, r0
 8000b7c:	6039      	str	r1, [r7, #0]
 8000b7e:	71fb      	strb	r3, [r7, #7]
	uint32_t start = DWT_micros();
 8000b80:	f001 fb24 	bl	80021cc <DWT_micros>
 8000b84:	60f8      	str	r0, [r7, #12]

	while (GPIO_ReadPin(DHT11_PORT, DHT11_PIN) != state)
 8000b86:	e009      	b.n	8000b9c <wait_for_state+0x28>
	{
		if ((DWT_micros() - start) >= timeout_us)
 8000b88:	f001 fb20 	bl	80021cc <DWT_micros>
 8000b8c:	4602      	mov	r2, r0
 8000b8e:	68fb      	ldr	r3, [r7, #12]
 8000b90:	1ad3      	subs	r3, r2, r3
 8000b92:	683a      	ldr	r2, [r7, #0]
 8000b94:	429a      	cmp	r2, r3
 8000b96:	d801      	bhi.n	8000b9c <wait_for_state+0x28>
		{
			return 0;
 8000b98:	2300      	movs	r3, #0
 8000b9a:	e00e      	b.n	8000bba <wait_for_state+0x46>
	while (GPIO_ReadPin(DHT11_PORT, DHT11_PIN) != state)
 8000b9c:	4b09      	ldr	r3, [pc, #36]	@ (8000bc4 <wait_for_state+0x50>)
 8000b9e:	681b      	ldr	r3, [r3, #0]
 8000ba0:	4a09      	ldr	r2, [pc, #36]	@ (8000bc8 <wait_for_state+0x54>)
 8000ba2:	8812      	ldrh	r2, [r2, #0]
 8000ba4:	b2d2      	uxtb	r2, r2
 8000ba6:	4611      	mov	r1, r2
 8000ba8:	4618      	mov	r0, r3
 8000baa:	f000 f9eb 	bl	8000f84 <GPIO_ReadPin>
 8000bae:	4603      	mov	r3, r0
 8000bb0:	461a      	mov	r2, r3
 8000bb2:	79fb      	ldrb	r3, [r7, #7]
 8000bb4:	4293      	cmp	r3, r2
 8000bb6:	d1e7      	bne.n	8000b88 <wait_for_state+0x14>
		}
	}

	return 1;
 8000bb8:	2301      	movs	r3, #1
}
 8000bba:	4618      	mov	r0, r3
 8000bbc:	3710      	adds	r7, #16
 8000bbe:	46bd      	mov	sp, r7
 8000bc0:	bd80      	pop	{r7, pc}
 8000bc2:	bf00      	nop
 8000bc4:	20000520 	.word	0x20000520
 8000bc8:	20000524 	.word	0x20000524

08000bcc <DHT11_read_bit>:

static uint8_t DHT11_read_bit(void) {
 8000bcc:	b580      	push	{r7, lr}
 8000bce:	b082      	sub	sp, #8
 8000bd0:	af00      	add	r7, sp, #0
    wait_for_state(1, DHT11_WAIT_TIMEOUT_US);  // wait for high
 8000bd2:	21c8      	movs	r1, #200	@ 0xc8
 8000bd4:	2001      	movs	r0, #1
 8000bd6:	f7ff ffcd 	bl	8000b74 <wait_for_state>
    uint32_t high_start = DWT_micros();
 8000bda:	f001 faf7 	bl	80021cc <DWT_micros>
 8000bde:	6078      	str	r0, [r7, #4]
    wait_for_state(0, DHT11_WAIT_TIMEOUT_US); // wait for low
 8000be0:	21c8      	movs	r1, #200	@ 0xc8
 8000be2:	2000      	movs	r0, #0
 8000be4:	f7ff ffc6 	bl	8000b74 <wait_for_state>
    uint32_t high_duration = DWT_micros() - high_start;
 8000be8:	f001 faf0 	bl	80021cc <DWT_micros>
 8000bec:	4602      	mov	r2, r0
 8000bee:	687b      	ldr	r3, [r7, #4]
 8000bf0:	1ad3      	subs	r3, r2, r3
 8000bf2:	603b      	str	r3, [r7, #0]
    return (high_duration > 40) ? 1 : 0;  // Typical threshold: 28us = 0, 70us = 1
 8000bf4:	683b      	ldr	r3, [r7, #0]
 8000bf6:	2b28      	cmp	r3, #40	@ 0x28
 8000bf8:	bf8c      	ite	hi
 8000bfa:	2301      	movhi	r3, #1
 8000bfc:	2300      	movls	r3, #0
 8000bfe:	b2db      	uxtb	r3, r3
}
 8000c00:	4618      	mov	r0, r3
 8000c02:	3708      	adds	r7, #8
 8000c04:	46bd      	mov	sp, r7
 8000c06:	bd80      	pop	{r7, pc}

08000c08 <DHT11_start>:
// -----------------------------------------------
// DHT Send start command
// -----------------------------------------------
uint8_t DHT11_start()
{
 8000c08:	b580      	push	{r7, lr}
 8000c0a:	af00      	add	r7, sp, #0
	// Start Request
	GPIO_Pin_Setup(DHT11_PORT, DHT11_PIN, GENERAL_PURPOSE_OUTPUT_OPENDRAIN_PULLUP, 0);
 8000c0c:	4b22      	ldr	r3, [pc, #136]	@ (8000c98 <DHT11_start+0x90>)
 8000c0e:	6818      	ldr	r0, [r3, #0]
 8000c10:	4b22      	ldr	r3, [pc, #136]	@ (8000c9c <DHT11_start+0x94>)
 8000c12:	881b      	ldrh	r3, [r3, #0]
 8000c14:	b2d9      	uxtb	r1, r3
 8000c16:	2300      	movs	r3, #0
 8000c18:	225d      	movs	r2, #93	@ 0x5d
 8000c1a:	f000 f8bf 	bl	8000d9c <GPIO_Pin_Setup>
	GPIO_WritePin(DHT11_PORT, DHT11_PIN, 0);
 8000c1e:	4b1e      	ldr	r3, [pc, #120]	@ (8000c98 <DHT11_start+0x90>)
 8000c20:	681b      	ldr	r3, [r3, #0]
 8000c22:	4a1e      	ldr	r2, [pc, #120]	@ (8000c9c <DHT11_start+0x94>)
 8000c24:	8812      	ldrh	r2, [r2, #0]
 8000c26:	b2d1      	uxtb	r1, r2
 8000c28:	2200      	movs	r2, #0
 8000c2a:	4618      	mov	r0, r3
 8000c2c:	f000 f9bf 	bl	8000fae <GPIO_WritePin>
	DWT_delay_ms(20);
 8000c30:	2014      	movs	r0, #20
 8000c32:	f001 fadf 	bl	80021f4 <DWT_delay_ms>
	GPIO_WritePin(DHT11_PORT, DHT11_PIN, 1);
 8000c36:	4b18      	ldr	r3, [pc, #96]	@ (8000c98 <DHT11_start+0x90>)
 8000c38:	681b      	ldr	r3, [r3, #0]
 8000c3a:	4a18      	ldr	r2, [pc, #96]	@ (8000c9c <DHT11_start+0x94>)
 8000c3c:	8812      	ldrh	r2, [r2, #0]
 8000c3e:	b2d1      	uxtb	r1, r2
 8000c40:	2201      	movs	r2, #1
 8000c42:	4618      	mov	r0, r3
 8000c44:	f000 f9b3 	bl	8000fae <GPIO_WritePin>
	//DWT_delay_us(30);

	// Check response
	GPIO_Pin_Setup(DHT11_PORT, DHT11_PIN, INPUT_FLOATING, 0); // Set pin as input to read response from DHT11
 8000c48:	4b13      	ldr	r3, [pc, #76]	@ (8000c98 <DHT11_start+0x90>)
 8000c4a:	6818      	ldr	r0, [r3, #0]
 8000c4c:	4b13      	ldr	r3, [pc, #76]	@ (8000c9c <DHT11_start+0x94>)
 8000c4e:	881b      	ldrh	r3, [r3, #0]
 8000c50:	b2d9      	uxtb	r1, r3
 8000c52:	2300      	movs	r3, #0
 8000c54:	2200      	movs	r2, #0
 8000c56:	f000 f8a1 	bl	8000d9c <GPIO_Pin_Setup>

	if (!wait_for_state(0, DHT11_WAIT_TIMEOUT_US))
 8000c5a:	21c8      	movs	r1, #200	@ 0xc8
 8000c5c:	2000      	movs	r0, #0
 8000c5e:	f7ff ff89 	bl	8000b74 <wait_for_state>
 8000c62:	4603      	mov	r3, r0
 8000c64:	2b00      	cmp	r3, #0
 8000c66:	d101      	bne.n	8000c6c <DHT11_start+0x64>
		return 0;
 8000c68:	2300      	movs	r3, #0
 8000c6a:	e012      	b.n	8000c92 <DHT11_start+0x8a>
	if (!wait_for_state(1, DHT11_WAIT_TIMEOUT_US))
 8000c6c:	21c8      	movs	r1, #200	@ 0xc8
 8000c6e:	2001      	movs	r0, #1
 8000c70:	f7ff ff80 	bl	8000b74 <wait_for_state>
 8000c74:	4603      	mov	r3, r0
 8000c76:	2b00      	cmp	r3, #0
 8000c78:	d101      	bne.n	8000c7e <DHT11_start+0x76>
		return 0;
 8000c7a:	2300      	movs	r3, #0
 8000c7c:	e009      	b.n	8000c92 <DHT11_start+0x8a>
	if (!wait_for_state(0, DHT11_WAIT_TIMEOUT_US))
 8000c7e:	21c8      	movs	r1, #200	@ 0xc8
 8000c80:	2000      	movs	r0, #0
 8000c82:	f7ff ff77 	bl	8000b74 <wait_for_state>
 8000c86:	4603      	mov	r3, r0
 8000c88:	2b00      	cmp	r3, #0
 8000c8a:	d101      	bne.n	8000c90 <DHT11_start+0x88>
		return 0;
 8000c8c:	2300      	movs	r3, #0
 8000c8e:	e000      	b.n	8000c92 <DHT11_start+0x8a>

	return 1;
 8000c90:	2301      	movs	r3, #1
}
 8000c92:	4618      	mov	r0, r3
 8000c94:	bd80      	pop	{r7, pc}
 8000c96:	bf00      	nop
 8000c98:	20000520 	.word	0x20000520
 8000c9c:	20000524 	.word	0x20000524

08000ca0 <DHT11_read_byte>:

// -----------------------------------------------
// DHT Read byte
// -----------------------------------------------
static uint8_t DHT11_read_byte(uint8_t *data)
{
 8000ca0:	b580      	push	{r7, lr}
 8000ca2:	b084      	sub	sp, #16
 8000ca4:	af00      	add	r7, sp, #0
 8000ca6:	6078      	str	r0, [r7, #4]

	uint8_t value = 0, j;
 8000ca8:	2300      	movs	r3, #0
 8000caa:	73fb      	strb	r3, [r7, #15]
	for (j = 0; j < 8; ++j)
 8000cac:	2300      	movs	r3, #0
 8000cae:	73bb      	strb	r3, [r7, #14]
 8000cb0:	e013      	b.n	8000cda <DHT11_read_byte+0x3a>
	{
		if (DHT11_read_bit())
 8000cb2:	f7ff ff8b 	bl	8000bcc <DHT11_read_bit>
 8000cb6:	4603      	mov	r3, r0
 8000cb8:	2b00      	cmp	r3, #0
 8000cba:	d00b      	beq.n	8000cd4 <DHT11_read_byte+0x34>
		{
			value |= (1 << (7 - j));
 8000cbc:	7bbb      	ldrb	r3, [r7, #14]
 8000cbe:	f1c3 0307 	rsb	r3, r3, #7
 8000cc2:	2201      	movs	r2, #1
 8000cc4:	fa02 f303 	lsl.w	r3, r2, r3
 8000cc8:	b25a      	sxtb	r2, r3
 8000cca:	f997 300f 	ldrsb.w	r3, [r7, #15]
 8000cce:	4313      	orrs	r3, r2
 8000cd0:	b25b      	sxtb	r3, r3
 8000cd2:	73fb      	strb	r3, [r7, #15]
	for (j = 0; j < 8; ++j)
 8000cd4:	7bbb      	ldrb	r3, [r7, #14]
 8000cd6:	3301      	adds	r3, #1
 8000cd8:	73bb      	strb	r3, [r7, #14]
 8000cda:	7bbb      	ldrb	r3, [r7, #14]
 8000cdc:	2b07      	cmp	r3, #7
 8000cde:	d9e8      	bls.n	8000cb2 <DHT11_read_byte+0x12>
		}
	}

	*data = value;
 8000ce0:	687b      	ldr	r3, [r7, #4]
 8000ce2:	7bfa      	ldrb	r2, [r7, #15]
 8000ce4:	701a      	strb	r2, [r3, #0]
	return 1;
 8000ce6:	2301      	movs	r3, #1
}
 8000ce8:	4618      	mov	r0, r3
 8000cea:	3710      	adds	r7, #16
 8000cec:	46bd      	mov	sp, r7
 8000cee:	bd80      	pop	{r7, pc}

08000cf0 <DHT11_read>:

// -----------------------------------------------
// DHT Read all data
// -----------------------------------------------
uint8_t DHT11_read(DHT11_TypeDef *dht11)
{
 8000cf0:	b580      	push	{r7, lr}
 8000cf2:	b084      	sub	sp, #16
 8000cf4:	af00      	add	r7, sp, #0
 8000cf6:	6078      	str	r0, [r7, #4]

	if (DHT11_start())
 8000cf8:	f7ff ff86 	bl	8000c08 <DHT11_start>
 8000cfc:	4603      	mov	r3, r0
 8000cfe:	2b00      	cmp	r3, #0
 8000d00:	d046      	beq.n	8000d90 <DHT11_read+0xa0>
		uint8_t hum_b2;
		uint8_t tmp_b1;
		uint8_t tmp_b2;
		uint8_t ch_sum;

		if (!DHT11_read_byte(&hum_b1)) return 0;
 8000d02:	f107 030f 	add.w	r3, r7, #15
 8000d06:	4618      	mov	r0, r3
 8000d08:	f7ff ffca 	bl	8000ca0 <DHT11_read_byte>
 8000d0c:	4603      	mov	r3, r0
 8000d0e:	2b00      	cmp	r3, #0
 8000d10:	d101      	bne.n	8000d16 <DHT11_read+0x26>
 8000d12:	2300      	movs	r3, #0
 8000d14:	e03d      	b.n	8000d92 <DHT11_read+0xa2>
		if (!DHT11_read_byte(&hum_b2)) return 0;
 8000d16:	f107 030e 	add.w	r3, r7, #14
 8000d1a:	4618      	mov	r0, r3
 8000d1c:	f7ff ffc0 	bl	8000ca0 <DHT11_read_byte>
 8000d20:	4603      	mov	r3, r0
 8000d22:	2b00      	cmp	r3, #0
 8000d24:	d101      	bne.n	8000d2a <DHT11_read+0x3a>
 8000d26:	2300      	movs	r3, #0
 8000d28:	e033      	b.n	8000d92 <DHT11_read+0xa2>
		if (!DHT11_read_byte(&tmp_b1)) return 0;
 8000d2a:	f107 030d 	add.w	r3, r7, #13
 8000d2e:	4618      	mov	r0, r3
 8000d30:	f7ff ffb6 	bl	8000ca0 <DHT11_read_byte>
 8000d34:	4603      	mov	r3, r0
 8000d36:	2b00      	cmp	r3, #0
 8000d38:	d101      	bne.n	8000d3e <DHT11_read+0x4e>
 8000d3a:	2300      	movs	r3, #0
 8000d3c:	e029      	b.n	8000d92 <DHT11_read+0xa2>
		if (!DHT11_read_byte(&tmp_b2)) return 0;
 8000d3e:	f107 030c 	add.w	r3, r7, #12
 8000d42:	4618      	mov	r0, r3
 8000d44:	f7ff ffac 	bl	8000ca0 <DHT11_read_byte>
 8000d48:	4603      	mov	r3, r0
 8000d4a:	2b00      	cmp	r3, #0
 8000d4c:	d101      	bne.n	8000d52 <DHT11_read+0x62>
 8000d4e:	2300      	movs	r3, #0
 8000d50:	e01f      	b.n	8000d92 <DHT11_read+0xa2>
		if (!DHT11_read_byte(&ch_sum)) return 0;
 8000d52:	f107 030b 	add.w	r3, r7, #11
 8000d56:	4618      	mov	r0, r3
 8000d58:	f7ff ffa2 	bl	8000ca0 <DHT11_read_byte>
 8000d5c:	4603      	mov	r3, r0
 8000d5e:	2b00      	cmp	r3, #0
 8000d60:	d101      	bne.n	8000d66 <DHT11_read+0x76>
 8000d62:	2300      	movs	r3, #0
 8000d64:	e015      	b.n	8000d92 <DHT11_read+0xa2>

		if (ch_sum == (uint8_t)(hum_b1 + hum_b2 + tmp_b1 + tmp_b2))
 8000d66:	7bfa      	ldrb	r2, [r7, #15]
 8000d68:	7bbb      	ldrb	r3, [r7, #14]
 8000d6a:	4413      	add	r3, r2
 8000d6c:	b2da      	uxtb	r2, r3
 8000d6e:	7b7b      	ldrb	r3, [r7, #13]
 8000d70:	4413      	add	r3, r2
 8000d72:	b2da      	uxtb	r2, r3
 8000d74:	7b3b      	ldrb	r3, [r7, #12]
 8000d76:	4413      	add	r3, r2
 8000d78:	b2da      	uxtb	r2, r3
 8000d7a:	7afb      	ldrb	r3, [r7, #11]
 8000d7c:	429a      	cmp	r2, r3
 8000d7e:	d107      	bne.n	8000d90 <DHT11_read+0xa0>
		{
			dht11->humidity = hum_b1;
 8000d80:	7bfa      	ldrb	r2, [r7, #15]
 8000d82:	687b      	ldr	r3, [r7, #4]
 8000d84:	701a      	strb	r2, [r3, #0]
			dht11->temperature = tmp_b1;
 8000d86:	7b7a      	ldrb	r2, [r7, #13]
 8000d88:	687b      	ldr	r3, [r7, #4]
 8000d8a:	705a      	strb	r2, [r3, #1]
			return 1;
 8000d8c:	2301      	movs	r3, #1
 8000d8e:	e000      	b.n	8000d92 <DHT11_read+0xa2>
		}
	}

	return 0;
 8000d90:	2300      	movs	r3, #0
}
 8000d92:	4618      	mov	r0, r3
 8000d94:	3710      	adds	r7, #16
 8000d96:	46bd      	mov	sp, r7
 8000d98:	bd80      	pop	{r7, pc}
	...

08000d9c <GPIO_Pin_Setup>:
 * @param pin       Pin number (0-15)
 * @param function  Packed configuration byte (MODER, OTYPER, OSPEEDR, PUPDR)
 * @param alternate_function AF number (0-15) – used only in alternate function mode
 */
void GPIO_Pin_Setup(GPIO_TypeDef* port, uint8_t pin, uint8_t function, uint8_t alternate_function)
{
 8000d9c:	b480      	push	{r7}
 8000d9e:	b083      	sub	sp, #12
 8000da0:	af00      	add	r7, sp, #0
 8000da2:	6078      	str	r0, [r7, #4]
 8000da4:	4608      	mov	r0, r1
 8000da6:	4611      	mov	r1, r2
 8000da8:	461a      	mov	r2, r3
 8000daa:	4603      	mov	r3, r0
 8000dac:	70fb      	strb	r3, [r7, #3]
 8000dae:	460b      	mov	r3, r1
 8000db0:	70bb      	strb	r3, [r7, #2]
 8000db2:	4613      	mov	r3, r2
 8000db4:	707b      	strb	r3, [r7, #1]
    // Enable clock for the selected port (STM32F411 specific)
    if(port == GPIOA)      RCC->AHB1ENR |= RCC_AHB1ENR_GPIOAEN;
 8000db6:	687b      	ldr	r3, [r7, #4]
 8000db8:	4a6b      	ldr	r2, [pc, #428]	@ (8000f68 <GPIO_Pin_Setup+0x1cc>)
 8000dba:	4293      	cmp	r3, r2
 8000dbc:	d106      	bne.n	8000dcc <GPIO_Pin_Setup+0x30>
 8000dbe:	4b6b      	ldr	r3, [pc, #428]	@ (8000f6c <GPIO_Pin_Setup+0x1d0>)
 8000dc0:	6b1b      	ldr	r3, [r3, #48]	@ 0x30
 8000dc2:	4a6a      	ldr	r2, [pc, #424]	@ (8000f6c <GPIO_Pin_Setup+0x1d0>)
 8000dc4:	f043 0301 	orr.w	r3, r3, #1
 8000dc8:	6313      	str	r3, [r2, #48]	@ 0x30
 8000dca:	e035      	b.n	8000e38 <GPIO_Pin_Setup+0x9c>
    else if(port == GPIOB) RCC->AHB1ENR |= RCC_AHB1ENR_GPIOBEN;
 8000dcc:	687b      	ldr	r3, [r7, #4]
 8000dce:	4a68      	ldr	r2, [pc, #416]	@ (8000f70 <GPIO_Pin_Setup+0x1d4>)
 8000dd0:	4293      	cmp	r3, r2
 8000dd2:	d106      	bne.n	8000de2 <GPIO_Pin_Setup+0x46>
 8000dd4:	4b65      	ldr	r3, [pc, #404]	@ (8000f6c <GPIO_Pin_Setup+0x1d0>)
 8000dd6:	6b1b      	ldr	r3, [r3, #48]	@ 0x30
 8000dd8:	4a64      	ldr	r2, [pc, #400]	@ (8000f6c <GPIO_Pin_Setup+0x1d0>)
 8000dda:	f043 0302 	orr.w	r3, r3, #2
 8000dde:	6313      	str	r3, [r2, #48]	@ 0x30
 8000de0:	e02a      	b.n	8000e38 <GPIO_Pin_Setup+0x9c>
    else if(port == GPIOC) RCC->AHB1ENR |= RCC_AHB1ENR_GPIOCEN;
 8000de2:	687b      	ldr	r3, [r7, #4]
 8000de4:	4a63      	ldr	r2, [pc, #396]	@ (8000f74 <GPIO_Pin_Setup+0x1d8>)
 8000de6:	4293      	cmp	r3, r2
 8000de8:	d106      	bne.n	8000df8 <GPIO_Pin_Setup+0x5c>
 8000dea:	4b60      	ldr	r3, [pc, #384]	@ (8000f6c <GPIO_Pin_Setup+0x1d0>)
 8000dec:	6b1b      	ldr	r3, [r3, #48]	@ 0x30
 8000dee:	4a5f      	ldr	r2, [pc, #380]	@ (8000f6c <GPIO_Pin_Setup+0x1d0>)
 8000df0:	f043 0304 	orr.w	r3, r3, #4
 8000df4:	6313      	str	r3, [r2, #48]	@ 0x30
 8000df6:	e01f      	b.n	8000e38 <GPIO_Pin_Setup+0x9c>
    else if(port == GPIOD) RCC->AHB1ENR |= RCC_AHB1ENR_GPIODEN;
 8000df8:	687b      	ldr	r3, [r7, #4]
 8000dfa:	4a5f      	ldr	r2, [pc, #380]	@ (8000f78 <GPIO_Pin_Setup+0x1dc>)
 8000dfc:	4293      	cmp	r3, r2
 8000dfe:	d106      	bne.n	8000e0e <GPIO_Pin_Setup+0x72>
 8000e00:	4b5a      	ldr	r3, [pc, #360]	@ (8000f6c <GPIO_Pin_Setup+0x1d0>)
 8000e02:	6b1b      	ldr	r3, [r3, #48]	@ 0x30
 8000e04:	4a59      	ldr	r2, [pc, #356]	@ (8000f6c <GPIO_Pin_Setup+0x1d0>)
 8000e06:	f043 0308 	orr.w	r3, r3, #8
 8000e0a:	6313      	str	r3, [r2, #48]	@ 0x30
 8000e0c:	e014      	b.n	8000e38 <GPIO_Pin_Setup+0x9c>
    else if(port == GPIOE) RCC->AHB1ENR |= RCC_AHB1ENR_GPIOEEN;
 8000e0e:	687b      	ldr	r3, [r7, #4]
 8000e10:	4a5a      	ldr	r2, [pc, #360]	@ (8000f7c <GPIO_Pin_Setup+0x1e0>)
 8000e12:	4293      	cmp	r3, r2
 8000e14:	d106      	bne.n	8000e24 <GPIO_Pin_Setup+0x88>
 8000e16:	4b55      	ldr	r3, [pc, #340]	@ (8000f6c <GPIO_Pin_Setup+0x1d0>)
 8000e18:	6b1b      	ldr	r3, [r3, #48]	@ 0x30
 8000e1a:	4a54      	ldr	r2, [pc, #336]	@ (8000f6c <GPIO_Pin_Setup+0x1d0>)
 8000e1c:	f043 0310 	orr.w	r3, r3, #16
 8000e20:	6313      	str	r3, [r2, #48]	@ 0x30
 8000e22:	e009      	b.n	8000e38 <GPIO_Pin_Setup+0x9c>
    else if(port == GPIOH) RCC->AHB1ENR |= RCC_AHB1ENR_GPIOHEN;
 8000e24:	687b      	ldr	r3, [r7, #4]
 8000e26:	4a56      	ldr	r2, [pc, #344]	@ (8000f80 <GPIO_Pin_Setup+0x1e4>)
 8000e28:	4293      	cmp	r3, r2
 8000e2a:	d105      	bne.n	8000e38 <GPIO_Pin_Setup+0x9c>
 8000e2c:	4b4f      	ldr	r3, [pc, #316]	@ (8000f6c <GPIO_Pin_Setup+0x1d0>)
 8000e2e:	6b1b      	ldr	r3, [r3, #48]	@ 0x30
 8000e30:	4a4e      	ldr	r2, [pc, #312]	@ (8000f6c <GPIO_Pin_Setup+0x1d0>)
 8000e32:	f043 0380 	orr.w	r3, r3, #128	@ 0x80
 8000e36:	6313      	str	r3, [r2, #48]	@ 0x30
    // Note: GPIOF, GPIOG, GPIOI are not available on F411 – omitted.

    // Clear and set MODER (2 bits per pin)
    port->MODER   &= ~(0x3U << (2 * pin));
 8000e38:	687b      	ldr	r3, [r7, #4]
 8000e3a:	681a      	ldr	r2, [r3, #0]
 8000e3c:	78fb      	ldrb	r3, [r7, #3]
 8000e3e:	005b      	lsls	r3, r3, #1
 8000e40:	2103      	movs	r1, #3
 8000e42:	fa01 f303 	lsl.w	r3, r1, r3
 8000e46:	43db      	mvns	r3, r3
 8000e48:	401a      	ands	r2, r3
 8000e4a:	687b      	ldr	r3, [r7, #4]
 8000e4c:	601a      	str	r2, [r3, #0]
    port->MODER   |= (((function & 0xC0) >> 6) << (2 * pin));
 8000e4e:	687b      	ldr	r3, [r7, #4]
 8000e50:	681b      	ldr	r3, [r3, #0]
 8000e52:	78ba      	ldrb	r2, [r7, #2]
 8000e54:	0992      	lsrs	r2, r2, #6
 8000e56:	b2d2      	uxtb	r2, r2
 8000e58:	4611      	mov	r1, r2
 8000e5a:	78fa      	ldrb	r2, [r7, #3]
 8000e5c:	0052      	lsls	r2, r2, #1
 8000e5e:	fa01 f202 	lsl.w	r2, r1, r2
 8000e62:	431a      	orrs	r2, r3
 8000e64:	687b      	ldr	r3, [r7, #4]
 8000e66:	601a      	str	r2, [r3, #0]

    // Clear and set OTYPER (1 bit per pin)
    port->OTYPER  &= ~(0x1U << pin);
 8000e68:	687b      	ldr	r3, [r7, #4]
 8000e6a:	685a      	ldr	r2, [r3, #4]
 8000e6c:	78fb      	ldrb	r3, [r7, #3]
 8000e6e:	2101      	movs	r1, #1
 8000e70:	fa01 f303 	lsl.w	r3, r1, r3
 8000e74:	43db      	mvns	r3, r3
 8000e76:	401a      	ands	r2, r3
 8000e78:	687b      	ldr	r3, [r7, #4]
 8000e7a:	605a      	str	r2, [r3, #4]
    port->OTYPER  |= (((function & 0x30) >> 4) << pin);
 8000e7c:	687b      	ldr	r3, [r7, #4]
 8000e7e:	685b      	ldr	r3, [r3, #4]
 8000e80:	78ba      	ldrb	r2, [r7, #2]
 8000e82:	1112      	asrs	r2, r2, #4
 8000e84:	f002 0103 	and.w	r1, r2, #3
 8000e88:	78fa      	ldrb	r2, [r7, #3]
 8000e8a:	fa01 f202 	lsl.w	r2, r1, r2
 8000e8e:	431a      	orrs	r2, r3
 8000e90:	687b      	ldr	r3, [r7, #4]
 8000e92:	605a      	str	r2, [r3, #4]

    // Clear and set OSPEEDR (2 bits per pin)
    port->OSPEEDR &= ~(0x3U << (2 * pin));
 8000e94:	687b      	ldr	r3, [r7, #4]
 8000e96:	689a      	ldr	r2, [r3, #8]
 8000e98:	78fb      	ldrb	r3, [r7, #3]
 8000e9a:	005b      	lsls	r3, r3, #1
 8000e9c:	2103      	movs	r1, #3
 8000e9e:	fa01 f303 	lsl.w	r3, r1, r3
 8000ea2:	43db      	mvns	r3, r3
 8000ea4:	401a      	ands	r2, r3
 8000ea6:	687b      	ldr	r3, [r7, #4]
 8000ea8:	609a      	str	r2, [r3, #8]
    port->OSPEEDR |= (((function & 0x0C) >> 2) << (2 * pin));
 8000eaa:	687b      	ldr	r3, [r7, #4]
 8000eac:	689b      	ldr	r3, [r3, #8]
 8000eae:	78ba      	ldrb	r2, [r7, #2]
 8000eb0:	1092      	asrs	r2, r2, #2
 8000eb2:	f002 0103 	and.w	r1, r2, #3
 8000eb6:	78fa      	ldrb	r2, [r7, #3]
 8000eb8:	0052      	lsls	r2, r2, #1
 8000eba:	fa01 f202 	lsl.w	r2, r1, r2
 8000ebe:	431a      	orrs	r2, r3
 8000ec0:	687b      	ldr	r3, [r7, #4]
 8000ec2:	609a      	str	r2, [r3, #8]

    // Clear and set PUPDR (2 bits per pin)
    port->PUPDR   &= ~(0x3U << (2 * pin));
 8000ec4:	687b      	ldr	r3, [r7, #4]
 8000ec6:	68da      	ldr	r2, [r3, #12]
 8000ec8:	78fb      	ldrb	r3, [r7, #3]
 8000eca:	005b      	lsls	r3, r3, #1
 8000ecc:	2103      	movs	r1, #3
 8000ece:	fa01 f303 	lsl.w	r3, r1, r3
 8000ed2:	43db      	mvns	r3, r3
 8000ed4:	401a      	ands	r2, r3
 8000ed6:	687b      	ldr	r3, [r7, #4]
 8000ed8:	60da      	str	r2, [r3, #12]
    port->PUPDR   |= ((function & 0x03) << (2 * pin));
 8000eda:	687b      	ldr	r3, [r7, #4]
 8000edc:	68db      	ldr	r3, [r3, #12]
 8000ede:	78ba      	ldrb	r2, [r7, #2]
 8000ee0:	f002 0103 	and.w	r1, r2, #3
 8000ee4:	78fa      	ldrb	r2, [r7, #3]
 8000ee6:	0052      	lsls	r2, r2, #1
 8000ee8:	fa01 f202 	lsl.w	r2, r1, r2
 8000eec:	431a      	orrs	r2, r3
 8000eee:	687b      	ldr	r3, [r7, #4]
 8000ef0:	60da      	str	r2, [r3, #12]

    // Configure alternate function registers (AFR) if needed (MODER = 10b)
    if ((function & 0xC0) == 0x80) // Alternate function mode
 8000ef2:	78bb      	ldrb	r3, [r7, #2]
 8000ef4:	f003 03c0 	and.w	r3, r3, #192	@ 0xc0
 8000ef8:	2b80      	cmp	r3, #128	@ 0x80
 8000efa:	d12f      	bne.n	8000f5c <GPIO_Pin_Setup+0x1c0>
    {
        if(pin < 8)
 8000efc:	78fb      	ldrb	r3, [r7, #3]
 8000efe:	2b07      	cmp	r3, #7
 8000f00:	d815      	bhi.n	8000f2e <GPIO_Pin_Setup+0x192>
        {
            port->AFR[0] &= ~(0xFU << (4 * pin));
 8000f02:	687b      	ldr	r3, [r7, #4]
 8000f04:	6a1a      	ldr	r2, [r3, #32]
 8000f06:	78fb      	ldrb	r3, [r7, #3]
 8000f08:	009b      	lsls	r3, r3, #2
 8000f0a:	210f      	movs	r1, #15
 8000f0c:	fa01 f303 	lsl.w	r3, r1, r3
 8000f10:	43db      	mvns	r3, r3
 8000f12:	401a      	ands	r2, r3
 8000f14:	687b      	ldr	r3, [r7, #4]
 8000f16:	621a      	str	r2, [r3, #32]
            port->AFR[0] |= (alternate_function << (4 * pin));
 8000f18:	687b      	ldr	r3, [r7, #4]
 8000f1a:	6a1b      	ldr	r3, [r3, #32]
 8000f1c:	7879      	ldrb	r1, [r7, #1]
 8000f1e:	78fa      	ldrb	r2, [r7, #3]
 8000f20:	0092      	lsls	r2, r2, #2
 8000f22:	fa01 f202 	lsl.w	r2, r1, r2
 8000f26:	431a      	orrs	r2, r3
 8000f28:	687b      	ldr	r3, [r7, #4]
 8000f2a:	621a      	str	r2, [r3, #32]
        {
            port->AFR[1] &= ~(0xFU << (4 * (pin - 8)));
            port->AFR[1] |= (alternate_function << (4 * (pin - 8)));
        }
    }
}
 8000f2c:	e016      	b.n	8000f5c <GPIO_Pin_Setup+0x1c0>
            port->AFR[1] &= ~(0xFU << (4 * (pin - 8)));
 8000f2e:	687b      	ldr	r3, [r7, #4]
 8000f30:	6a5a      	ldr	r2, [r3, #36]	@ 0x24
 8000f32:	78fb      	ldrb	r3, [r7, #3]
 8000f34:	3b08      	subs	r3, #8
 8000f36:	009b      	lsls	r3, r3, #2
 8000f38:	210f      	movs	r1, #15
 8000f3a:	fa01 f303 	lsl.w	r3, r1, r3
 8000f3e:	43db      	mvns	r3, r3
 8000f40:	401a      	ands	r2, r3
 8000f42:	687b      	ldr	r3, [r7, #4]
 8000f44:	625a      	str	r2, [r3, #36]	@ 0x24
            port->AFR[1] |= (alternate_function << (4 * (pin - 8)));
 8000f46:	687b      	ldr	r3, [r7, #4]
 8000f48:	6a5b      	ldr	r3, [r3, #36]	@ 0x24
 8000f4a:	7879      	ldrb	r1, [r7, #1]
 8000f4c:	78fa      	ldrb	r2, [r7, #3]
 8000f4e:	3a08      	subs	r2, #8
 8000f50:	0092      	lsls	r2, r2, #2
 8000f52:	fa01 f202 	lsl.w	r2, r1, r2
 8000f56:	431a      	orrs	r2, r3
 8000f58:	687b      	ldr	r3, [r7, #4]
 8000f5a:	625a      	str	r2, [r3, #36]	@ 0x24
}
 8000f5c:	bf00      	nop
 8000f5e:	370c      	adds	r7, #12
 8000f60:	46bd      	mov	sp, r7
 8000f62:	f85d 7b04 	ldr.w	r7, [sp], #4
 8000f66:	4770      	bx	lr
 8000f68:	40020000 	.word	0x40020000
 8000f6c:	40023800 	.word	0x40023800
 8000f70:	40020400 	.word	0x40020400
 8000f74:	40020800 	.word	0x40020800
 8000f78:	40020c00 	.word	0x40020c00
 8000f7c:	40021000 	.word	0x40021000
 8000f80:	40021c00 	.word	0x40021c00

08000f84 <GPIO_ReadPin>:
 * @param port  GPIO port
 * @param pin   Pin number
 * @return      0 or 1
 */
uint8_t GPIO_ReadPin(GPIO_TypeDef *port, uint8_t pin)
{
 8000f84:	b480      	push	{r7}
 8000f86:	b083      	sub	sp, #12
 8000f88:	af00      	add	r7, sp, #0
 8000f8a:	6078      	str	r0, [r7, #4]
 8000f8c:	460b      	mov	r3, r1
 8000f8e:	70fb      	strb	r3, [r7, #3]
    return (uint8_t)((port->IDR >> pin) & 1U);
 8000f90:	687b      	ldr	r3, [r7, #4]
 8000f92:	691a      	ldr	r2, [r3, #16]
 8000f94:	78fb      	ldrb	r3, [r7, #3]
 8000f96:	fa22 f303 	lsr.w	r3, r2, r3
 8000f9a:	b2db      	uxtb	r3, r3
 8000f9c:	f003 0301 	and.w	r3, r3, #1
 8000fa0:	b2db      	uxtb	r3, r3
}
 8000fa2:	4618      	mov	r0, r3
 8000fa4:	370c      	adds	r7, #12
 8000fa6:	46bd      	mov	sp, r7
 8000fa8:	f85d 7b04 	ldr.w	r7, [sp], #4
 8000fac:	4770      	bx	lr

08000fae <GPIO_WritePin>:
 * @param port  GPIO port
 * @param pin   Pin number
 * @param value 0 or 1
 */
void GPIO_WritePin(GPIO_TypeDef *port, uint8_t pin, uint8_t value)
{
 8000fae:	b480      	push	{r7}
 8000fb0:	b083      	sub	sp, #12
 8000fb2:	af00      	add	r7, sp, #0
 8000fb4:	6078      	str	r0, [r7, #4]
 8000fb6:	460b      	mov	r3, r1
 8000fb8:	70fb      	strb	r3, [r7, #3]
 8000fba:	4613      	mov	r3, r2
 8000fbc:	70bb      	strb	r3, [r7, #2]
    if(value)
 8000fbe:	78bb      	ldrb	r3, [r7, #2]
 8000fc0:	2b00      	cmp	r3, #0
 8000fc2:	d005      	beq.n	8000fd0 <GPIO_WritePin+0x22>
        port->BSRR = (1U << pin);         // Set bit
 8000fc4:	78fb      	ldrb	r3, [r7, #3]
 8000fc6:	2201      	movs	r2, #1
 8000fc8:	409a      	lsls	r2, r3
 8000fca:	687b      	ldr	r3, [r7, #4]
 8000fcc:	619a      	str	r2, [r3, #24]
    else
        port->BSRR = (1U << (pin + 16));  // Reset bit
}
 8000fce:	e005      	b.n	8000fdc <GPIO_WritePin+0x2e>
        port->BSRR = (1U << (pin + 16));  // Reset bit
 8000fd0:	78fb      	ldrb	r3, [r7, #3]
 8000fd2:	3310      	adds	r3, #16
 8000fd4:	2201      	movs	r2, #1
 8000fd6:	409a      	lsls	r2, r3
 8000fd8:	687b      	ldr	r3, [r7, #4]
 8000fda:	619a      	str	r2, [r3, #24]
}
 8000fdc:	bf00      	nop
 8000fde:	370c      	adds	r7, #12
 8000fe0:	46bd      	mov	sp, r7
 8000fe2:	f85d 7b04 	ldr.w	r7, [sp], #4
 8000fe6:	4770      	bx	lr

08000fe8 <I2C_CalculateClockRegisters>:
 * @brief Compute CR2, CCR, TRISE values based on desired mode and SYSCLK.
 * @param mode    I2C_Fast_Mode or I2C_Normal_Mode
 * @param freq    APB1 clock frequency (usually SYSCLK)
 */
static void I2C_CalculateClockRegisters(I2C_TypeDef *I2Cx, bool mode, uint32_t freq)
{
 8000fe8:	b480      	push	{r7}
 8000fea:	b087      	sub	sp, #28
 8000fec:	af00      	add	r7, sp, #0
 8000fee:	60f8      	str	r0, [r7, #12]
 8000ff0:	460b      	mov	r3, r1
 8000ff2:	607a      	str	r2, [r7, #4]
 8000ff4:	72fb      	strb	r3, [r7, #11]
    uint32_t tmp = 0;
 8000ff6:	2300      	movs	r3, #0
 8000ff8:	617b      	str	r3, [r7, #20]

    // CR2: Peripheral clock frequency in MHz
    I2Cx->CR2 = (freq / 1000000U) & 0x3F;
 8000ffa:	687b      	ldr	r3, [r7, #4]
 8000ffc:	4a23      	ldr	r2, [pc, #140]	@ (800108c <I2C_CalculateClockRegisters+0xa4>)
 8000ffe:	fba2 2303 	umull	r2, r3, r2, r3
 8001002:	0c9b      	lsrs	r3, r3, #18
 8001004:	f003 023f 	and.w	r2, r3, #63	@ 0x3f
 8001008:	68fb      	ldr	r3, [r7, #12]
 800100a:	605a      	str	r2, [r3, #4]

    if (mode == I2C_Fast_Mode)
 800100c:	7afb      	ldrb	r3, [r7, #11]
 800100e:	2b00      	cmp	r3, #0
 8001010:	d022      	beq.n	8001058 <I2C_CalculateClockRegisters+0x70>
    {
        // Fast mode (400 kHz)
        tmp = (freq + 400000U * 2) / (400000U * 2); // CCR = freq / (400k * 2)
 8001012:	687b      	ldr	r3, [r7, #4]
 8001014:	f503 2343 	add.w	r3, r3, #798720	@ 0xc3000
 8001018:	f503 63a0 	add.w	r3, r3, #1280	@ 0x500
 800101c:	0a1b      	lsrs	r3, r3, #8
 800101e:	4a1c      	ldr	r2, [pc, #112]	@ (8001090 <I2C_CalculateClockRegisters+0xa8>)
 8001020:	fba2 2303 	umull	r2, r3, r2, r3
 8001024:	091b      	lsrs	r3, r3, #4
 8001026:	617b      	str	r3, [r7, #20]
        I2Cx->CCR = (1 << 15) | (tmp & 0xFFF);      // FS = 1, duty cycle (default = 0: 2x t_low = t_high)
 8001028:	697b      	ldr	r3, [r7, #20]
 800102a:	f3c3 030b 	ubfx	r3, r3, #0, #12
 800102e:	f443 4200 	orr.w	r2, r3, #32768	@ 0x8000
 8001032:	68fb      	ldr	r3, [r7, #12]
 8001034:	61da      	str	r2, [r3, #28]
        // TRISE: 300ns + 1 = (freq * 0.3us) + 1
        I2Cx->TRISE = (freq / 1000000U) * 300 / 1000 + 1;
 8001036:	687b      	ldr	r3, [r7, #4]
 8001038:	4a14      	ldr	r2, [pc, #80]	@ (800108c <I2C_CalculateClockRegisters+0xa4>)
 800103a:	fba2 2303 	umull	r2, r3, r2, r3
 800103e:	0c9b      	lsrs	r3, r3, #18
 8001040:	f44f 7296 	mov.w	r2, #300	@ 0x12c
 8001044:	fb02 f303 	mul.w	r3, r2, r3
 8001048:	4a12      	ldr	r2, [pc, #72]	@ (8001094 <I2C_CalculateClockRegisters+0xac>)
 800104a:	fba2 2303 	umull	r2, r3, r2, r3
 800104e:	099b      	lsrs	r3, r3, #6
 8001050:	1c5a      	adds	r2, r3, #1
 8001052:	68fb      	ldr	r3, [r7, #12]
 8001054:	621a      	str	r2, [r3, #32]
        // Normal mode (100 kHz)
        tmp = freq / (100000U * 2);
        I2Cx->CCR = tmp & 0xFFF;                    // FS = 0
        I2Cx->TRISE = (freq / 1000000U) + 1;
    }
}
 8001056:	e013      	b.n	8001080 <I2C_CalculateClockRegisters+0x98>
        tmp = freq / (100000U * 2);
 8001058:	687b      	ldr	r3, [r7, #4]
 800105a:	099b      	lsrs	r3, r3, #6
 800105c:	4a0e      	ldr	r2, [pc, #56]	@ (8001098 <I2C_CalculateClockRegisters+0xb0>)
 800105e:	fba2 2303 	umull	r2, r3, r2, r3
 8001062:	099b      	lsrs	r3, r3, #6
 8001064:	617b      	str	r3, [r7, #20]
        I2Cx->CCR = tmp & 0xFFF;                    // FS = 0
 8001066:	697b      	ldr	r3, [r7, #20]
 8001068:	f3c3 020b 	ubfx	r2, r3, #0, #12
 800106c:	68fb      	ldr	r3, [r7, #12]
 800106e:	61da      	str	r2, [r3, #28]
        I2Cx->TRISE = (freq / 1000000U) + 1;
 8001070:	687b      	ldr	r3, [r7, #4]
 8001072:	4a06      	ldr	r2, [pc, #24]	@ (800108c <I2C_CalculateClockRegisters+0xa4>)
 8001074:	fba2 2303 	umull	r2, r3, r2, r3
 8001078:	0c9b      	lsrs	r3, r3, #18
 800107a:	1c5a      	adds	r2, r3, #1
 800107c:	68fb      	ldr	r3, [r7, #12]
 800107e:	621a      	str	r2, [r3, #32]
}
 8001080:	bf00      	nop
 8001082:	371c      	adds	r7, #28
 8001084:	46bd      	mov	sp, r7
 8001086:	f85d 7b04 	ldr.w	r7, [sp], #4
 800108a:	4770      	bx	lr
 800108c:	431bde83 	.word	0x431bde83
 8001090:	014f8b59 	.word	0x014f8b59
 8001094:	10624dd3 	.word	0x10624dd3
 8001098:	053e2d63 	.word	0x053e2d63

0800109c <I2C_Master_Init>:
/**
 * @brief Initialize I2C peripheral as master.
 * @param I2C    Configuration (I2Cx and mode)
 */
void I2C_Master_Init(I2C_Config I2C)
{
 800109c:	b580      	push	{r7, lr}
 800109e:	b082      	sub	sp, #8
 80010a0:	af00      	add	r7, sp, #0
 80010a2:	463b      	mov	r3, r7
 80010a4:	e883 0003 	stmia.w	r3, {r0, r1}
    // Enable clocks and configure GPIO pins (using AF values from GPIO.h)
    if (I2C.I2C == I2C1) // PB6 (SCL1), PB7 (SDA1)
 80010a8:	683b      	ldr	r3, [r7, #0]
 80010aa:	4a38      	ldr	r2, [pc, #224]	@ (800118c <I2C_Master_Init+0xf0>)
 80010ac:	4293      	cmp	r3, r2
 80010ae:	d112      	bne.n	80010d6 <I2C_Master_Init+0x3a>
    {
        RCC->APB1ENR |= RCC_APB1ENR_I2C1EN;
 80010b0:	4b37      	ldr	r3, [pc, #220]	@ (8001190 <I2C_Master_Init+0xf4>)
 80010b2:	6c1b      	ldr	r3, [r3, #64]	@ 0x40
 80010b4:	4a36      	ldr	r2, [pc, #216]	@ (8001190 <I2C_Master_Init+0xf4>)
 80010b6:	f443 1300 	orr.w	r3, r3, #2097152	@ 0x200000
 80010ba:	6413      	str	r3, [r2, #64]	@ 0x40
        GPIO_Pin_Setup(GPIOB, GPIO_PIN_6, ALTERNATE_FUNCTION_OUTPUT_OPENDRAIN_PULLUP, AF4_I2C1_I2C2);
 80010bc:	2304      	movs	r3, #4
 80010be:	229d      	movs	r2, #157	@ 0x9d
 80010c0:	2106      	movs	r1, #6
 80010c2:	4834      	ldr	r0, [pc, #208]	@ (8001194 <I2C_Master_Init+0xf8>)
 80010c4:	f7ff fe6a 	bl	8000d9c <GPIO_Pin_Setup>
        GPIO_Pin_Setup(GPIOB, GPIO_PIN_7, ALTERNATE_FUNCTION_OUTPUT_OPENDRAIN_PULLUP, AF4_I2C1_I2C2);
 80010c8:	2304      	movs	r3, #4
 80010ca:	229d      	movs	r2, #157	@ 0x9d
 80010cc:	2107      	movs	r1, #7
 80010ce:	4831      	ldr	r0, [pc, #196]	@ (8001194 <I2C_Master_Init+0xf8>)
 80010d0:	f7ff fe64 	bl	8000d9c <GPIO_Pin_Setup>
 80010d4:	e032      	b.n	800113c <I2C_Master_Init+0xa0>
    }
    else if (I2C.I2C == I2C2) // PB10 (SCL2), PB3 (SDA2)
 80010d6:	683b      	ldr	r3, [r7, #0]
 80010d8:	4a2f      	ldr	r2, [pc, #188]	@ (8001198 <I2C_Master_Init+0xfc>)
 80010da:	4293      	cmp	r3, r2
 80010dc:	d112      	bne.n	8001104 <I2C_Master_Init+0x68>
    {
        RCC->APB1ENR |= RCC_APB1ENR_I2C2EN;
 80010de:	4b2c      	ldr	r3, [pc, #176]	@ (8001190 <I2C_Master_Init+0xf4>)
 80010e0:	6c1b      	ldr	r3, [r3, #64]	@ 0x40
 80010e2:	4a2b      	ldr	r2, [pc, #172]	@ (8001190 <I2C_Master_Init+0xf4>)
 80010e4:	f443 0380 	orr.w	r3, r3, #4194304	@ 0x400000
 80010e8:	6413      	str	r3, [r2, #64]	@ 0x40
        GPIO_Pin_Setup(GPIOB, GPIO_PIN_10, ALTERNATE_FUNCTION_OUTPUT_OPENDRAIN_PULLUP, AF4_I2C1_I2C2);
 80010ea:	2304      	movs	r3, #4
 80010ec:	229d      	movs	r2, #157	@ 0x9d
 80010ee:	210a      	movs	r1, #10
 80010f0:	4828      	ldr	r0, [pc, #160]	@ (8001194 <I2C_Master_Init+0xf8>)
 80010f2:	f7ff fe53 	bl	8000d9c <GPIO_Pin_Setup>
        GPIO_Pin_Setup(GPIOB, GPIO_PIN_3 , ALTERNATE_FUNCTION_OUTPUT_OPENDRAIN_PULLUP, AF4_I2C1_I2C2);
 80010f6:	2304      	movs	r3, #4
 80010f8:	229d      	movs	r2, #157	@ 0x9d
 80010fa:	2103      	movs	r1, #3
 80010fc:	4825      	ldr	r0, [pc, #148]	@ (8001194 <I2C_Master_Init+0xf8>)
 80010fe:	f7ff fe4d 	bl	8000d9c <GPIO_Pin_Setup>
 8001102:	e01b      	b.n	800113c <I2C_Master_Init+0xa0>
    }
    else if (I2C.I2C == I2C3) // PA8 (SCL3), PB4 (SDA3)
 8001104:	683b      	ldr	r3, [r7, #0]
 8001106:	4a25      	ldr	r2, [pc, #148]	@ (800119c <I2C_Master_Init+0x100>)
 8001108:	4293      	cmp	r3, r2
 800110a:	d117      	bne.n	800113c <I2C_Master_Init+0xa0>
    {
        RCC->APB1ENR |= RCC_APB1ENR_I2C3EN;
 800110c:	4b20      	ldr	r3, [pc, #128]	@ (8001190 <I2C_Master_Init+0xf4>)
 800110e:	6c1b      	ldr	r3, [r3, #64]	@ 0x40
 8001110:	4a1f      	ldr	r2, [pc, #124]	@ (8001190 <I2C_Master_Init+0xf4>)
 8001112:	f443 0300 	orr.w	r3, r3, #8388608	@ 0x800000
 8001116:	6413      	str	r3, [r2, #64]	@ 0x40
        RCC->AHB1ENR |= RCC_AHB1ENR_GPIOAEN | RCC_AHB1ENR_GPIOBEN;
 8001118:	4b1d      	ldr	r3, [pc, #116]	@ (8001190 <I2C_Master_Init+0xf4>)
 800111a:	6b1b      	ldr	r3, [r3, #48]	@ 0x30
 800111c:	4a1c      	ldr	r2, [pc, #112]	@ (8001190 <I2C_Master_Init+0xf4>)
 800111e:	f043 0303 	orr.w	r3, r3, #3
 8001122:	6313      	str	r3, [r2, #48]	@ 0x30
        GPIO_Pin_Setup(GPIOA, GPIO_PIN_8, ALTERNATE_FUNCTION_OUTPUT_OPENDRAIN_PULLUP, AF9_I2C3);
 8001124:	2309      	movs	r3, #9
 8001126:	229d      	movs	r2, #157	@ 0x9d
 8001128:	2108      	movs	r1, #8
 800112a:	481d      	ldr	r0, [pc, #116]	@ (80011a0 <I2C_Master_Init+0x104>)
 800112c:	f7ff fe36 	bl	8000d9c <GPIO_Pin_Setup>
        GPIO_Pin_Setup(GPIOB, GPIO_PIN_4, ALTERNATE_FUNCTION_OUTPUT_OPENDRAIN_PULLUP, AF9_I2C3);
 8001130:	2309      	movs	r3, #9
 8001132:	229d      	movs	r2, #157	@ 0x9d
 8001134:	2104      	movs	r1, #4
 8001136:	4817      	ldr	r0, [pc, #92]	@ (8001194 <I2C_Master_Init+0xf8>)
 8001138:	f7ff fe30 	bl	8000d9c <GPIO_Pin_Setup>
    }

    // Disable I2C peripheral before configuration
    I2C.I2C->CR1 &= ~I2C_CR1_PE;
 800113c:	683b      	ldr	r3, [r7, #0]
 800113e:	681a      	ldr	r2, [r3, #0]
 8001140:	683b      	ldr	r3, [r7, #0]
 8001142:	f022 0201 	bic.w	r2, r2, #1
 8001146:	601a      	str	r2, [r3, #0]

    // Reset the peripheral (SWRST)
    I2C.I2C->CR1 |= I2C_CR1_SWRST;
 8001148:	683b      	ldr	r3, [r7, #0]
 800114a:	681a      	ldr	r2, [r3, #0]
 800114c:	683b      	ldr	r3, [r7, #0]
 800114e:	f442 4200 	orr.w	r2, r2, #32768	@ 0x8000
 8001152:	601a      	str	r2, [r3, #0]
    I2C.I2C->CR1 &= ~I2C_CR1_SWRST;
 8001154:	683b      	ldr	r3, [r7, #0]
 8001156:	681a      	ldr	r2, [r3, #0]
 8001158:	683b      	ldr	r3, [r7, #0]
 800115a:	f422 4200 	bic.w	r2, r2, #32768	@ 0x8000
 800115e:	601a      	str	r2, [r3, #0]

    // Configure clock registers
    I2C_CalculateClockRegisters(I2C.I2C, I2C.mode, SYSCLK_FREQ);
 8001160:	683b      	ldr	r3, [r7, #0]
 8001162:	7939      	ldrb	r1, [r7, #4]
 8001164:	4a0f      	ldr	r2, [pc, #60]	@ (80011a4 <I2C_Master_Init+0x108>)
 8001166:	4618      	mov	r0, r3
 8001168:	f7ff ff3e 	bl	8000fe8 <I2C_CalculateClockRegisters>

    // Enable No-Stretch mode (optional, but used in original)
    I2C.I2C->CR1 |= I2C_CR1_NOSTRETCH;
 800116c:	683b      	ldr	r3, [r7, #0]
 800116e:	681a      	ldr	r2, [r3, #0]
 8001170:	683b      	ldr	r3, [r7, #0]
 8001172:	f042 0280 	orr.w	r2, r2, #128	@ 0x80
 8001176:	601a      	str	r2, [r3, #0]

    // Enable the peripheral
    I2C.I2C->CR1 |= I2C_CR1_PE;
 8001178:	683b      	ldr	r3, [r7, #0]
 800117a:	681a      	ldr	r2, [r3, #0]
 800117c:	683b      	ldr	r3, [r7, #0]
 800117e:	f042 0201 	orr.w	r2, r2, #1
 8001182:	601a      	str	r2, [r3, #0]
}
 8001184:	bf00      	nop
 8001186:	3708      	adds	r7, #8
 8001188:	46bd      	mov	sp, r7
 800118a:	bd80      	pop	{r7, pc}
 800118c:	40005400 	.word	0x40005400
 8001190:	40023800 	.word	0x40023800
 8001194:	40020400 	.word	0x40020400
 8001198:	40005800 	.word	0x40005800
 800119c:	40005c00 	.word	0x40005c00
 80011a0:	40020000 	.word	0x40020000
 80011a4:	02dc6c00 	.word	0x02dc6c00

080011a8 <I2C_Master_Start>:
/**
 * @brief Send I2C START condition.
 * @return 0 on success, -1 on timeout.
 */
int I2C_Master_Start(I2C_Config I2C)
{
 80011a8:	b480      	push	{r7}
 80011aa:	b085      	sub	sp, #20
 80011ac:	af00      	add	r7, sp, #0
 80011ae:	463b      	mov	r3, r7
 80011b0:	e883 0003 	stmia.w	r3, {r0, r1}
    uint32_t timeout = I2C_TIMEOUT;
 80011b4:	4b0f      	ldr	r3, [pc, #60]	@ (80011f4 <I2C_Master_Start+0x4c>)
 80011b6:	60fb      	str	r3, [r7, #12]
    I2C.I2C->CR1 |= I2C_CR1_START;
 80011b8:	683b      	ldr	r3, [r7, #0]
 80011ba:	681a      	ldr	r2, [r3, #0]
 80011bc:	683b      	ldr	r3, [r7, #0]
 80011be:	f442 7280 	orr.w	r2, r2, #256	@ 0x100
 80011c2:	601a      	str	r2, [r3, #0]
    while (!(I2C.I2C->SR1 & I2C_SR1_SB))
 80011c4:	e008      	b.n	80011d8 <I2C_Master_Start+0x30>
    {
        if (--timeout == 0) return -1;
 80011c6:	68fb      	ldr	r3, [r7, #12]
 80011c8:	3b01      	subs	r3, #1
 80011ca:	60fb      	str	r3, [r7, #12]
 80011cc:	68fb      	ldr	r3, [r7, #12]
 80011ce:	2b00      	cmp	r3, #0
 80011d0:	d102      	bne.n	80011d8 <I2C_Master_Start+0x30>
 80011d2:	f04f 33ff 	mov.w	r3, #4294967295
 80011d6:	e006      	b.n	80011e6 <I2C_Master_Start+0x3e>
    while (!(I2C.I2C->SR1 & I2C_SR1_SB))
 80011d8:	683b      	ldr	r3, [r7, #0]
 80011da:	695b      	ldr	r3, [r3, #20]
 80011dc:	f003 0301 	and.w	r3, r3, #1
 80011e0:	2b00      	cmp	r3, #0
 80011e2:	d0f0      	beq.n	80011c6 <I2C_Master_Start+0x1e>
    }
    return 0;
 80011e4:	2300      	movs	r3, #0
}
 80011e6:	4618      	mov	r0, r3
 80011e8:	3714      	adds	r7, #20
 80011ea:	46bd      	mov	sp, r7
 80011ec:	f85d 7b04 	ldr.w	r7, [sp], #4
 80011f0:	4770      	bx	lr
 80011f2:	bf00      	nop
 80011f4:	000186a0 	.word	0x000186a0

080011f8 <I2C_Master_Address>:
 * @param address     7-bit device address
 * @param read_write  0 = write, 1 = read
 * @return 0 on success, -1 on NACK or timeout.
 */
int I2C_Master_Address(I2C_Config I2C, uint8_t address, uint8_t read_write)
{
 80011f8:	b590      	push	{r4, r7, lr}
 80011fa:	b087      	sub	sp, #28
 80011fc:	af00      	add	r7, sp, #0
 80011fe:	f107 0408 	add.w	r4, r7, #8
 8001202:	e884 0003 	stmia.w	r4, {r0, r1}
 8001206:	4611      	mov	r1, r2
 8001208:	461a      	mov	r2, r3
 800120a:	460b      	mov	r3, r1
 800120c:	71fb      	strb	r3, [r7, #7]
 800120e:	4613      	mov	r3, r2
 8001210:	71bb      	strb	r3, [r7, #6]
    uint32_t timeout = I2C_TIMEOUT;
 8001212:	4b25      	ldr	r3, [pc, #148]	@ (80012a8 <I2C_Master_Address+0xb0>)
 8001214:	617b      	str	r3, [r7, #20]
    I2C.I2C->DR = (address << 1) | (read_write & 0x01);
 8001216:	79fb      	ldrb	r3, [r7, #7]
 8001218:	005a      	lsls	r2, r3, #1
 800121a:	79bb      	ldrb	r3, [r7, #6]
 800121c:	f003 0301 	and.w	r3, r3, #1
 8001220:	431a      	orrs	r2, r3
 8001222:	68bb      	ldr	r3, [r7, #8]
 8001224:	611a      	str	r2, [r3, #16]

    // Wait for ADDR or AF (NACK)
    while (!(I2C.I2C->SR1 & I2C_SR1_ADDR) && !(I2C.I2C->SR1 & I2C_SR1_AF))
 8001226:	e014      	b.n	8001252 <I2C_Master_Address+0x5a>
    {
        if (--timeout == 0)
 8001228:	697b      	ldr	r3, [r7, #20]
 800122a:	3b01      	subs	r3, #1
 800122c:	617b      	str	r3, [r7, #20]
 800122e:	697b      	ldr	r3, [r7, #20]
 8001230:	2b00      	cmp	r3, #0
 8001232:	d10e      	bne.n	8001252 <I2C_Master_Address+0x5a>
        {
            I2C_Master_Stop(I2C);
 8001234:	f107 0308 	add.w	r3, r7, #8
 8001238:	e893 0003 	ldmia.w	r3, {r0, r1}
 800123c:	f000 f945 	bl	80014ca <I2C_Master_Stop>
            I2C.I2C->SR1 &= ~I2C_SR1_AF;   // Clear AF
 8001240:	68bb      	ldr	r3, [r7, #8]
 8001242:	695a      	ldr	r2, [r3, #20]
 8001244:	68bb      	ldr	r3, [r7, #8]
 8001246:	f422 6280 	bic.w	r2, r2, #1024	@ 0x400
 800124a:	615a      	str	r2, [r3, #20]
            return -1;
 800124c:	f04f 33ff 	mov.w	r3, #4294967295
 8001250:	e025      	b.n	800129e <I2C_Master_Address+0xa6>
    while (!(I2C.I2C->SR1 & I2C_SR1_ADDR) && !(I2C.I2C->SR1 & I2C_SR1_AF))
 8001252:	68bb      	ldr	r3, [r7, #8]
 8001254:	695b      	ldr	r3, [r3, #20]
 8001256:	f003 0302 	and.w	r3, r3, #2
 800125a:	2b00      	cmp	r3, #0
 800125c:	d105      	bne.n	800126a <I2C_Master_Address+0x72>
 800125e:	68bb      	ldr	r3, [r7, #8]
 8001260:	695b      	ldr	r3, [r3, #20]
 8001262:	f403 6380 	and.w	r3, r3, #1024	@ 0x400
 8001266:	2b00      	cmp	r3, #0
 8001268:	d0de      	beq.n	8001228 <I2C_Master_Address+0x30>
        }
    }

    if (I2C.I2C->SR1 & I2C_SR1_AF)
 800126a:	68bb      	ldr	r3, [r7, #8]
 800126c:	695b      	ldr	r3, [r3, #20]
 800126e:	f403 6380 	and.w	r3, r3, #1024	@ 0x400
 8001272:	2b00      	cmp	r3, #0
 8001274:	d00e      	beq.n	8001294 <I2C_Master_Address+0x9c>
    {
        I2C_Master_Stop(I2C);
 8001276:	f107 0308 	add.w	r3, r7, #8
 800127a:	e893 0003 	ldmia.w	r3, {r0, r1}
 800127e:	f000 f924 	bl	80014ca <I2C_Master_Stop>
        I2C.I2C->SR1 &= ~I2C_SR1_AF;
 8001282:	68bb      	ldr	r3, [r7, #8]
 8001284:	695a      	ldr	r2, [r3, #20]
 8001286:	68bb      	ldr	r3, [r7, #8]
 8001288:	f422 6280 	bic.w	r2, r2, #1024	@ 0x400
 800128c:	615a      	str	r2, [r3, #20]
        return -1;
 800128e:	f04f 33ff 	mov.w	r3, #4294967295
 8001292:	e004      	b.n	800129e <I2C_Master_Address+0xa6>
    }

    // Clear ADDR flag by reading SR1 then SR2
    (void)I2C.I2C->SR1;
 8001294:	68bb      	ldr	r3, [r7, #8]
 8001296:	695b      	ldr	r3, [r3, #20]
    (void)I2C.I2C->SR2;
 8001298:	68bb      	ldr	r3, [r7, #8]
 800129a:	699b      	ldr	r3, [r3, #24]

    return 0;
 800129c:	2300      	movs	r3, #0
}
 800129e:	4618      	mov	r0, r3
 80012a0:	371c      	adds	r7, #28
 80012a2:	46bd      	mov	sp, r7
 80012a4:	bd90      	pop	{r4, r7, pc}
 80012a6:	bf00      	nop
 80012a8:	000186a0 	.word	0x000186a0

080012ac <I2C_Master_Send_Byte>:
/**
 * @brief Send one data byte.
 * @return 0 on success, -1 on timeout.
 */
int I2C_Master_Send_Byte(I2C_Config I2C, uint8_t data)
{
 80012ac:	b480      	push	{r7}
 80012ae:	b087      	sub	sp, #28
 80012b0:	af00      	add	r7, sp, #0
 80012b2:	f107 0308 	add.w	r3, r7, #8
 80012b6:	e883 0003 	stmia.w	r3, {r0, r1}
 80012ba:	4613      	mov	r3, r2
 80012bc:	71fb      	strb	r3, [r7, #7]
    uint32_t timeout = I2C_TIMEOUT;
 80012be:	4b17      	ldr	r3, [pc, #92]	@ (800131c <I2C_Master_Send_Byte+0x70>)
 80012c0:	617b      	str	r3, [r7, #20]
    while (!(I2C.I2C->SR1 & I2C_SR1_TXE))
 80012c2:	e008      	b.n	80012d6 <I2C_Master_Send_Byte+0x2a>
    {
        if (--timeout == 0) return -1;
 80012c4:	697b      	ldr	r3, [r7, #20]
 80012c6:	3b01      	subs	r3, #1
 80012c8:	617b      	str	r3, [r7, #20]
 80012ca:	697b      	ldr	r3, [r7, #20]
 80012cc:	2b00      	cmp	r3, #0
 80012ce:	d102      	bne.n	80012d6 <I2C_Master_Send_Byte+0x2a>
 80012d0:	f04f 33ff 	mov.w	r3, #4294967295
 80012d4:	e01b      	b.n	800130e <I2C_Master_Send_Byte+0x62>
    while (!(I2C.I2C->SR1 & I2C_SR1_TXE))
 80012d6:	68bb      	ldr	r3, [r7, #8]
 80012d8:	695b      	ldr	r3, [r3, #20]
 80012da:	f003 0380 	and.w	r3, r3, #128	@ 0x80
 80012de:	2b00      	cmp	r3, #0
 80012e0:	d0f0      	beq.n	80012c4 <I2C_Master_Send_Byte+0x18>
    }
    I2C.I2C->DR = data;
 80012e2:	68bb      	ldr	r3, [r7, #8]
 80012e4:	79fa      	ldrb	r2, [r7, #7]
 80012e6:	611a      	str	r2, [r3, #16]

    timeout = I2C_TIMEOUT;
 80012e8:	4b0c      	ldr	r3, [pc, #48]	@ (800131c <I2C_Master_Send_Byte+0x70>)
 80012ea:	617b      	str	r3, [r7, #20]
    while (!(I2C.I2C->SR1 & I2C_SR1_TXE))
 80012ec:	e008      	b.n	8001300 <I2C_Master_Send_Byte+0x54>
    {
        if (--timeout == 0) return -1;
 80012ee:	697b      	ldr	r3, [r7, #20]
 80012f0:	3b01      	subs	r3, #1
 80012f2:	617b      	str	r3, [r7, #20]
 80012f4:	697b      	ldr	r3, [r7, #20]
 80012f6:	2b00      	cmp	r3, #0
 80012f8:	d102      	bne.n	8001300 <I2C_Master_Send_Byte+0x54>
 80012fa:	f04f 33ff 	mov.w	r3, #4294967295
 80012fe:	e006      	b.n	800130e <I2C_Master_Send_Byte+0x62>
    while (!(I2C.I2C->SR1 & I2C_SR1_TXE))
 8001300:	68bb      	ldr	r3, [r7, #8]
 8001302:	695b      	ldr	r3, [r3, #20]
 8001304:	f003 0380 	and.w	r3, r3, #128	@ 0x80
 8001308:	2b00      	cmp	r3, #0
 800130a:	d0f0      	beq.n	80012ee <I2C_Master_Send_Byte+0x42>
    }
    return 0;
 800130c:	2300      	movs	r3, #0
}
 800130e:	4618      	mov	r0, r3
 8001310:	371c      	adds	r7, #28
 8001312:	46bd      	mov	sp, r7
 8001314:	f85d 7b04 	ldr.w	r7, [sp], #4
 8001318:	4770      	bx	lr
 800131a:	bf00      	nop
 800131c:	000186a0 	.word	0x000186a0

08001320 <I2C_Master_Send_Buffer>:
/**
 * @brief Send multiple bytes.
 * @return 0 on success, -1 on timeout.
 */
int I2C_Master_Send_Buffer(I2C_Config I2C, uint8_t *data, int length)
{
 8001320:	b590      	push	{r4, r7, lr}
 8001322:	b087      	sub	sp, #28
 8001324:	af00      	add	r7, sp, #0
 8001326:	f107 0408 	add.w	r4, r7, #8
 800132a:	e884 0003 	stmia.w	r4, {r0, r1}
 800132e:	607a      	str	r2, [r7, #4]
 8001330:	603b      	str	r3, [r7, #0]
    for (int i = 0; i < length; i++)
 8001332:	2300      	movs	r3, #0
 8001334:	617b      	str	r3, [r7, #20]
 8001336:	e013      	b.n	8001360 <I2C_Master_Send_Buffer+0x40>
    {
        if (I2C_Master_Send_Byte(I2C, data[i]) != 0)
 8001338:	697b      	ldr	r3, [r7, #20]
 800133a:	687a      	ldr	r2, [r7, #4]
 800133c:	4413      	add	r3, r2
 800133e:	781b      	ldrb	r3, [r3, #0]
 8001340:	461a      	mov	r2, r3
 8001342:	f107 0308 	add.w	r3, r7, #8
 8001346:	e893 0003 	ldmia.w	r3, {r0, r1}
 800134a:	f7ff ffaf 	bl	80012ac <I2C_Master_Send_Byte>
 800134e:	4603      	mov	r3, r0
 8001350:	2b00      	cmp	r3, #0
 8001352:	d002      	beq.n	800135a <I2C_Master_Send_Buffer+0x3a>
            return -1;
 8001354:	f04f 33ff 	mov.w	r3, #4294967295
 8001358:	e007      	b.n	800136a <I2C_Master_Send_Buffer+0x4a>
    for (int i = 0; i < length; i++)
 800135a:	697b      	ldr	r3, [r7, #20]
 800135c:	3301      	adds	r3, #1
 800135e:	617b      	str	r3, [r7, #20]
 8001360:	697a      	ldr	r2, [r7, #20]
 8001362:	683b      	ldr	r3, [r7, #0]
 8001364:	429a      	cmp	r2, r3
 8001366:	dbe7      	blt.n	8001338 <I2C_Master_Send_Buffer+0x18>
    }
    return 0;
 8001368:	2300      	movs	r3, #0
}
 800136a:	4618      	mov	r0, r3
 800136c:	371c      	adds	r7, #28
 800136e:	46bd      	mov	sp, r7
 8001370:	bd90      	pop	{r4, r7, pc}
	...

08001374 <I2C_Master_Receive_Byte>:
 *          the caller has already set the appropriate ACK/NACK state.
 *          For single‑byte reads, use I2C_Master_Read_Register which handles NACK correctly.
 * @return received byte (0-255) or -1 on timeout.
 */
int I2C_Master_Receive_Byte(I2C_Config I2C)
{
 8001374:	b480      	push	{r7}
 8001376:	b085      	sub	sp, #20
 8001378:	af00      	add	r7, sp, #0
 800137a:	463b      	mov	r3, r7
 800137c:	e883 0003 	stmia.w	r3, {r0, r1}
    uint32_t timeout = I2C_TIMEOUT;
 8001380:	4b0c      	ldr	r3, [pc, #48]	@ (80013b4 <I2C_Master_Receive_Byte+0x40>)
 8001382:	60fb      	str	r3, [r7, #12]
    while (!(I2C.I2C->SR1 & I2C_SR1_RXNE))
 8001384:	e008      	b.n	8001398 <I2C_Master_Receive_Byte+0x24>
    {
        if (--timeout == 0) return -1;
 8001386:	68fb      	ldr	r3, [r7, #12]
 8001388:	3b01      	subs	r3, #1
 800138a:	60fb      	str	r3, [r7, #12]
 800138c:	68fb      	ldr	r3, [r7, #12]
 800138e:	2b00      	cmp	r3, #0
 8001390:	d102      	bne.n	8001398 <I2C_Master_Receive_Byte+0x24>
 8001392:	f04f 33ff 	mov.w	r3, #4294967295
 8001396:	e007      	b.n	80013a8 <I2C_Master_Receive_Byte+0x34>
    while (!(I2C.I2C->SR1 & I2C_SR1_RXNE))
 8001398:	683b      	ldr	r3, [r7, #0]
 800139a:	695b      	ldr	r3, [r3, #20]
 800139c:	f003 0340 	and.w	r3, r3, #64	@ 0x40
 80013a0:	2b00      	cmp	r3, #0
 80013a2:	d0f0      	beq.n	8001386 <I2C_Master_Receive_Byte+0x12>
    }
    return (int)I2C.I2C->DR;
 80013a4:	683b      	ldr	r3, [r7, #0]
 80013a6:	691b      	ldr	r3, [r3, #16]
}
 80013a8:	4618      	mov	r0, r3
 80013aa:	3714      	adds	r7, #20
 80013ac:	46bd      	mov	sp, r7
 80013ae:	f85d 7b04 	ldr.w	r7, [sp], #4
 80013b2:	4770      	bx	lr
 80013b4:	000186a0 	.word	0x000186a0

080013b8 <I2C_Master_Receive_Buffer>:
 * @param data   Buffer to store received bytes.
 * @param length Number of bytes to receive.
 * @return 0 on success, -1 on timeout.
 */
int I2C_Master_Receive_Buffer(I2C_Config I2C, uint8_t *data, int length)
{
 80013b8:	b590      	push	{r4, r7, lr}
 80013ba:	b089      	sub	sp, #36	@ 0x24
 80013bc:	af00      	add	r7, sp, #0
 80013be:	f107 0408 	add.w	r4, r7, #8
 80013c2:	e884 0003 	stmia.w	r4, {r0, r1}
 80013c6:	607a      	str	r2, [r7, #4]
 80013c8:	603b      	str	r3, [r7, #0]
    if (length <= 0) return -1;
 80013ca:	683b      	ldr	r3, [r7, #0]
 80013cc:	2b00      	cmp	r3, #0
 80013ce:	dc02      	bgt.n	80013d6 <I2C_Master_Receive_Buffer+0x1e>
 80013d0:	f04f 33ff 	mov.w	r3, #4294967295
 80013d4:	e051      	b.n	800147a <I2C_Master_Receive_Buffer+0xc2>

    // For single byte: NACK before the byte arrives
    if (length == 1)
 80013d6:	683b      	ldr	r3, [r7, #0]
 80013d8:	2b01      	cmp	r3, #1
 80013da:	d118      	bne.n	800140e <I2C_Master_Receive_Buffer+0x56>
    {
        I2C_Master_NACK(I2C);
 80013dc:	f107 0308 	add.w	r3, r7, #8
 80013e0:	e893 0003 	ldmia.w	r3, {r0, r1}
 80013e4:	f000 f84d 	bl	8001482 <I2C_Master_NACK>
        int byte = I2C_Master_Receive_Byte(I2C);
 80013e8:	f107 0308 	add.w	r3, r7, #8
 80013ec:	e893 0003 	ldmia.w	r3, {r0, r1}
 80013f0:	f7ff ffc0 	bl	8001374 <I2C_Master_Receive_Byte>
 80013f4:	6178      	str	r0, [r7, #20]
        if (byte < 0) return -1;
 80013f6:	697b      	ldr	r3, [r7, #20]
 80013f8:	2b00      	cmp	r3, #0
 80013fa:	da02      	bge.n	8001402 <I2C_Master_Receive_Buffer+0x4a>
 80013fc:	f04f 33ff 	mov.w	r3, #4294967295
 8001400:	e03b      	b.n	800147a <I2C_Master_Receive_Buffer+0xc2>
        data[0] = (uint8_t)byte;
 8001402:	697b      	ldr	r3, [r7, #20]
 8001404:	b2da      	uxtb	r2, r3
 8001406:	687b      	ldr	r3, [r7, #4]
 8001408:	701a      	strb	r2, [r3, #0]
        return 0;
 800140a:	2300      	movs	r3, #0
 800140c:	e035      	b.n	800147a <I2C_Master_Receive_Buffer+0xc2>
    }

    // For multiple bytes: ACK for all but the last
    for (int i = 0; i < length; i++)
 800140e:	2300      	movs	r3, #0
 8001410:	61fb      	str	r3, [r7, #28]
 8001412:	e027      	b.n	8001464 <I2C_Master_Receive_Buffer+0xac>
    {
        if (i == (length - 1))
 8001414:	683b      	ldr	r3, [r7, #0]
 8001416:	3b01      	subs	r3, #1
 8001418:	69fa      	ldr	r2, [r7, #28]
 800141a:	429a      	cmp	r2, r3
 800141c:	d106      	bne.n	800142c <I2C_Master_Receive_Buffer+0x74>
            I2C_Master_NACK(I2C);   // NACK before last byte
 800141e:	f107 0308 	add.w	r3, r7, #8
 8001422:	e893 0003 	ldmia.w	r3, {r0, r1}
 8001426:	f000 f82c 	bl	8001482 <I2C_Master_NACK>
 800142a:	e005      	b.n	8001438 <I2C_Master_Receive_Buffer+0x80>
        else
            I2C_Master_ACK(I2C);
 800142c:	f107 0308 	add.w	r3, r7, #8
 8001430:	e893 0003 	ldmia.w	r3, {r0, r1}
 8001434:	f000 f837 	bl	80014a6 <I2C_Master_ACK>

        int byte = I2C_Master_Receive_Byte(I2C);
 8001438:	f107 0308 	add.w	r3, r7, #8
 800143c:	e893 0003 	ldmia.w	r3, {r0, r1}
 8001440:	f7ff ff98 	bl	8001374 <I2C_Master_Receive_Byte>
 8001444:	61b8      	str	r0, [r7, #24]
        if (byte < 0) return -1;
 8001446:	69bb      	ldr	r3, [r7, #24]
 8001448:	2b00      	cmp	r3, #0
 800144a:	da02      	bge.n	8001452 <I2C_Master_Receive_Buffer+0x9a>
 800144c:	f04f 33ff 	mov.w	r3, #4294967295
 8001450:	e013      	b.n	800147a <I2C_Master_Receive_Buffer+0xc2>
        data[i] = (uint8_t)byte;
 8001452:	69fb      	ldr	r3, [r7, #28]
 8001454:	687a      	ldr	r2, [r7, #4]
 8001456:	4413      	add	r3, r2
 8001458:	69ba      	ldr	r2, [r7, #24]
 800145a:	b2d2      	uxtb	r2, r2
 800145c:	701a      	strb	r2, [r3, #0]
    for (int i = 0; i < length; i++)
 800145e:	69fb      	ldr	r3, [r7, #28]
 8001460:	3301      	adds	r3, #1
 8001462:	61fb      	str	r3, [r7, #28]
 8001464:	69fa      	ldr	r2, [r7, #28]
 8001466:	683b      	ldr	r3, [r7, #0]
 8001468:	429a      	cmp	r2, r3
 800146a:	dbd3      	blt.n	8001414 <I2C_Master_Receive_Buffer+0x5c>
    }

    // Leave ACK enabled for future transfers
    I2C_Master_ACK(I2C);
 800146c:	f107 0308 	add.w	r3, r7, #8
 8001470:	e893 0003 	ldmia.w	r3, {r0, r1}
 8001474:	f000 f817 	bl	80014a6 <I2C_Master_ACK>
    return 0;
 8001478:	2300      	movs	r3, #0
}
 800147a:	4618      	mov	r0, r3
 800147c:	3724      	adds	r7, #36	@ 0x24
 800147e:	46bd      	mov	sp, r7
 8001480:	bd90      	pop	{r4, r7, pc}

08001482 <I2C_Master_NACK>:

void I2C_Master_NACK(I2C_Config I2C)
{
 8001482:	b480      	push	{r7}
 8001484:	b083      	sub	sp, #12
 8001486:	af00      	add	r7, sp, #0
 8001488:	463b      	mov	r3, r7
 800148a:	e883 0003 	stmia.w	r3, {r0, r1}
    I2C.I2C->CR1 &= ~I2C_CR1_ACK;
 800148e:	683b      	ldr	r3, [r7, #0]
 8001490:	681a      	ldr	r2, [r3, #0]
 8001492:	683b      	ldr	r3, [r7, #0]
 8001494:	f422 6280 	bic.w	r2, r2, #1024	@ 0x400
 8001498:	601a      	str	r2, [r3, #0]
}
 800149a:	bf00      	nop
 800149c:	370c      	adds	r7, #12
 800149e:	46bd      	mov	sp, r7
 80014a0:	f85d 7b04 	ldr.w	r7, [sp], #4
 80014a4:	4770      	bx	lr

080014a6 <I2C_Master_ACK>:

void I2C_Master_ACK(I2C_Config I2C)
{
 80014a6:	b480      	push	{r7}
 80014a8:	b083      	sub	sp, #12
 80014aa:	af00      	add	r7, sp, #0
 80014ac:	463b      	mov	r3, r7
 80014ae:	e883 0003 	stmia.w	r3, {r0, r1}
    I2C.I2C->CR1 |= I2C_CR1_ACK;
 80014b2:	683b      	ldr	r3, [r7, #0]
 80014b4:	681a      	ldr	r2, [r3, #0]
 80014b6:	683b      	ldr	r3, [r7, #0]
 80014b8:	f442 6280 	orr.w	r2, r2, #1024	@ 0x400
 80014bc:	601a      	str	r2, [r3, #0]
}
 80014be:	bf00      	nop
 80014c0:	370c      	adds	r7, #12
 80014c2:	46bd      	mov	sp, r7
 80014c4:	f85d 7b04 	ldr.w	r7, [sp], #4
 80014c8:	4770      	bx	lr

080014ca <I2C_Master_Stop>:

void I2C_Master_Stop(I2C_Config I2C)
{
 80014ca:	b480      	push	{r7}
 80014cc:	b083      	sub	sp, #12
 80014ce:	af00      	add	r7, sp, #0
 80014d0:	463b      	mov	r3, r7
 80014d2:	e883 0003 	stmia.w	r3, {r0, r1}
    I2C.I2C->CR1 |= I2C_CR1_STOP;
 80014d6:	683b      	ldr	r3, [r7, #0]
 80014d8:	681a      	ldr	r2, [r3, #0]
 80014da:	683b      	ldr	r3, [r7, #0]
 80014dc:	f442 7200 	orr.w	r2, r2, #512	@ 0x200
 80014e0:	601a      	str	r2, [r3, #0]
}
 80014e2:	bf00      	nop
 80014e4:	370c      	adds	r7, #12
 80014e6:	46bd      	mov	sp, r7
 80014e8:	f85d 7b04 	ldr.w	r7, [sp], #4
 80014ec:	4770      	bx	lr
	...

080014f0 <SH1106_WriteCommand>:
/* Absolute value */
#define ABS(x)   ((x) > 0 ? (x) : -(x))

/* I2C helper functions */
static void SH1106_WriteCommand(uint8_t command)
{
 80014f0:	b580      	push	{r7, lr}
 80014f2:	b082      	sub	sp, #8
 80014f4:	af00      	add	r7, sp, #0
 80014f6:	4603      	mov	r3, r0
 80014f8:	71fb      	strb	r3, [r7, #7]
	I2C_Master_Start(SH1106_I2C_Config);
 80014fa:	4b10      	ldr	r3, [pc, #64]	@ (800153c <SH1106_WriteCommand+0x4c>)
 80014fc:	e893 0003 	ldmia.w	r3, {r0, r1}
 8001500:	f7ff fe52 	bl	80011a8 <I2C_Master_Start>
	I2C_Master_Address(SH1106_I2C_Config, SH1106_I2C_ADDR, 0);
 8001504:	490d      	ldr	r1, [pc, #52]	@ (800153c <SH1106_WriteCommand+0x4c>)
 8001506:	2300      	movs	r3, #0
 8001508:	223c      	movs	r2, #60	@ 0x3c
 800150a:	c903      	ldmia	r1, {r0, r1}
 800150c:	f7ff fe74 	bl	80011f8 <I2C_Master_Address>
	I2C_Master_Send_Byte(SH1106_I2C_Config, 0x00);
 8001510:	4b0a      	ldr	r3, [pc, #40]	@ (800153c <SH1106_WriteCommand+0x4c>)
 8001512:	2200      	movs	r2, #0
 8001514:	e893 0003 	ldmia.w	r3, {r0, r1}
 8001518:	f7ff fec8 	bl	80012ac <I2C_Master_Send_Byte>
	I2C_Master_Send_Byte(SH1106_I2C_Config, command);
 800151c:	79fb      	ldrb	r3, [r7, #7]
 800151e:	4907      	ldr	r1, [pc, #28]	@ (800153c <SH1106_WriteCommand+0x4c>)
 8001520:	461a      	mov	r2, r3
 8001522:	c903      	ldmia	r1, {r0, r1}
 8001524:	f7ff fec2 	bl	80012ac <I2C_Master_Send_Byte>
	I2C_Master_Stop(SH1106_I2C_Config);
 8001528:	4b04      	ldr	r3, [pc, #16]	@ (800153c <SH1106_WriteCommand+0x4c>)
 800152a:	e893 0003 	ldmia.w	r3, {r0, r1}
 800152e:	f7ff ffcc 	bl	80014ca <I2C_Master_Stop>
}
 8001532:	bf00      	nop
 8001534:	3708      	adds	r7, #8
 8001536:	46bd      	mov	sp, r7
 8001538:	bd80      	pop	{r7, pc}
 800153a:	bf00      	nop
 800153c:	20000950 	.word	0x20000950

08001540 <SH1106_WriteDataMulti>:
//	I2C_Master_Send_Byte(SH1106_I2C_Config, data);
//	I2C_Master_Stop(SH1106_I2C_Config);
//}

static void SH1106_WriteDataMulti(const uint8_t *data, uint16_t length)
{
 8001540:	b580      	push	{r7, lr}
 8001542:	b082      	sub	sp, #8
 8001544:	af00      	add	r7, sp, #0
 8001546:	6078      	str	r0, [r7, #4]
 8001548:	460b      	mov	r3, r1
 800154a:	807b      	strh	r3, [r7, #2]
	I2C_Master_Start(SH1106_I2C_Config);
 800154c:	4b0f      	ldr	r3, [pc, #60]	@ (800158c <SH1106_WriteDataMulti+0x4c>)
 800154e:	e893 0003 	ldmia.w	r3, {r0, r1}
 8001552:	f7ff fe29 	bl	80011a8 <I2C_Master_Start>
	I2C_Master_Address(SH1106_I2C_Config, SH1106_I2C_ADDR, 0);
 8001556:	490d      	ldr	r1, [pc, #52]	@ (800158c <SH1106_WriteDataMulti+0x4c>)
 8001558:	2300      	movs	r3, #0
 800155a:	223c      	movs	r2, #60	@ 0x3c
 800155c:	c903      	ldmia	r1, {r0, r1}
 800155e:	f7ff fe4b 	bl	80011f8 <I2C_Master_Address>
	I2C_Master_Send_Byte(SH1106_I2C_Config, 0x40);
 8001562:	4b0a      	ldr	r3, [pc, #40]	@ (800158c <SH1106_WriteDataMulti+0x4c>)
 8001564:	2240      	movs	r2, #64	@ 0x40
 8001566:	e893 0003 	ldmia.w	r3, {r0, r1}
 800156a:	f7ff fe9f 	bl	80012ac <I2C_Master_Send_Byte>
	I2C_Master_Send_Buffer(SH1106_I2C_Config, (uint8_t *)data, length);
 800156e:	887b      	ldrh	r3, [r7, #2]
 8001570:	4906      	ldr	r1, [pc, #24]	@ (800158c <SH1106_WriteDataMulti+0x4c>)
 8001572:	687a      	ldr	r2, [r7, #4]
 8001574:	c903      	ldmia	r1, {r0, r1}
 8001576:	f7ff fed3 	bl	8001320 <I2C_Master_Send_Buffer>
	I2C_Master_Stop(SH1106_I2C_Config);
 800157a:	4b04      	ldr	r3, [pc, #16]	@ (800158c <SH1106_WriteDataMulti+0x4c>)
 800157c:	e893 0003 	ldmia.w	r3, {r0, r1}
 8001580:	f7ff ffa3 	bl	80014ca <I2C_Master_Stop>
}
 8001584:	bf00      	nop
 8001586:	3708      	adds	r7, #8
 8001588:	46bd      	mov	sp, r7
 800158a:	bd80      	pop	{r7, pc}
 800158c:	20000950 	.word	0x20000950

08001590 <SH1106_Init>:

#define SH1106_NORMALDISPLAY       0xA6
#define SH1106_INVERTDISPLAY       0xA7

uint8_t SH1106_Init(I2C_TypeDef *I2C) {
 8001590:	b580      	push	{r7, lr}
 8001592:	b082      	sub	sp, #8
 8001594:	af00      	add	r7, sp, #0
 8001596:	6078      	str	r0, [r7, #4]
	SH1106_I2C_Config.I2C = I2C,
 8001598:	4a34      	ldr	r2, [pc, #208]	@ (800166c <SH1106_Init+0xdc>)
 800159a:	687b      	ldr	r3, [r7, #4]
 800159c:	6013      	str	r3, [r2, #0]
	SH1106_I2C_Config.mode = I2C_Fast_Mode;
 800159e:	4b33      	ldr	r3, [pc, #204]	@ (800166c <SH1106_Init+0xdc>)
 80015a0:	2201      	movs	r2, #1
 80015a2:	711a      	strb	r2, [r3, #4]
	I2C_Master_Init(SH1106_I2C_Config);
 80015a4:	4b31      	ldr	r3, [pc, #196]	@ (800166c <SH1106_Init+0xdc>)
 80015a6:	e893 0003 	ldmia.w	r3, {r0, r1}
 80015aa:	f7ff fd77 	bl	800109c <I2C_Master_Init>
	/* Wait for the display to boot */
	DWT_delay_ms(100);
 80015ae:	2064      	movs	r0, #100	@ 0x64
 80015b0:	f000 fe20 	bl	80021f4 <DWT_delay_ms>
	
	  // Initialize the display
	SH1106_WRITECOMMAND(0xAE); //display off
 80015b4:	20ae      	movs	r0, #174	@ 0xae
 80015b6:	f7ff ff9b 	bl	80014f0 <SH1106_WriteCommand>
	SH1106_WRITECOMMAND(0x00 + (SH1106_X_OFFSET & 0x0F)); //Set column start for 132x64 RAM offset
 80015ba:	2001      	movs	r0, #1
 80015bc:	f7ff ff98 	bl	80014f0 <SH1106_WriteCommand>
	SH1106_WRITECOMMAND(0xB0|0x00); //Set Page Start Address for Page Addressing Mode,0-7
 80015c0:	20b0      	movs	r0, #176	@ 0xb0
 80015c2:	f7ff ff95 	bl	80014f0 <SH1106_WriteCommand>
	SH1106_WRITECOMMAND(0x81); //--set contrast control register
 80015c6:	2081      	movs	r0, #129	@ 0x81
 80015c8:	f7ff ff92 	bl	80014f0 <SH1106_WriteCommand>
	SH1106_WRITECOMMAND(0xFF); // contrast value
 80015cc:	20ff      	movs	r0, #255	@ 0xff
 80015ce:	f7ff ff8f 	bl	80014f0 <SH1106_WriteCommand>
	SH1106_WRITECOMMAND(0xA1); //--set segment re-map 0 to 127
 80015d2:	20a1      	movs	r0, #161	@ 0xa1
 80015d4:	f7ff ff8c 	bl	80014f0 <SH1106_WriteCommand>
	SH1106_WRITECOMMAND(0xA6); //--set normal display
 80015d8:	20a6      	movs	r0, #166	@ 0xa6
 80015da:	f7ff ff89 	bl	80014f0 <SH1106_WriteCommand>
	SH1106_WRITECOMMAND(0xA8); //--set multiplex ratio(1 to 64)
 80015de:	20a8      	movs	r0, #168	@ 0xa8
 80015e0:	f7ff ff86 	bl	80014f0 <SH1106_WriteCommand>
	SH1106_WRITECOMMAND(0x3F); // multiplex value
 80015e4:	203f      	movs	r0, #63	@ 0x3f
 80015e6:	f7ff ff83 	bl	80014f0 <SH1106_WriteCommand>
	SH1106_WRITECOMMAND(0xAD); // Set Pump Mode
 80015ea:	20ad      	movs	r0, #173	@ 0xad
 80015ec:	f7ff ff80 	bl	80014f0 <SH1106_WriteCommand>
	SH1106_WRITECOMMAND(0x8B); // Pump ON
 80015f0:	208b      	movs	r0, #139	@ 0x8b
 80015f2:	f7ff ff7d 	bl	80014f0 <SH1106_WriteCommand>
	SH1106_WRITECOMMAND(0x30|0x02); // Set Pump Voltage 8.0
 80015f6:	2032      	movs	r0, #50	@ 0x32
 80015f8:	f7ff ff7a 	bl	80014f0 <SH1106_WriteCommand>
	SH1106_WRITECOMMAND(0xC8); //Set COM Output Scan Direction
 80015fc:	20c8      	movs	r0, #200	@ 0xc8
 80015fe:	f7ff ff77 	bl	80014f0 <SH1106_WriteCommand>
	SH1106_WRITECOMMAND(0xD3); //-set display offset
 8001602:	20d3      	movs	r0, #211	@ 0xd3
 8001604:	f7ff ff74 	bl	80014f0 <SH1106_WriteCommand>
	SH1106_WRITECOMMAND(0x00); //-not offset
 8001608:	2000      	movs	r0, #0
 800160a:	f7ff ff71 	bl	80014f0 <SH1106_WriteCommand>
	SH1106_WRITECOMMAND(0xD5); //--set display clock divide ratio/oscillator frequency
 800160e:	20d5      	movs	r0, #213	@ 0xd5
 8001610:	f7ff ff6e 	bl	80014f0 <SH1106_WriteCommand>
	SH1106_WRITECOMMAND(0x80); //--set divide ratio
 8001614:	2080      	movs	r0, #128	@ 0x80
 8001616:	f7ff ff6b 	bl	80014f0 <SH1106_WriteCommand>
	SH1106_WRITECOMMAND(0xD9); //--set pre-charge period
 800161a:	20d9      	movs	r0, #217	@ 0xd9
 800161c:	f7ff ff68 	bl	80014f0 <SH1106_WriteCommand>
	SH1106_WRITECOMMAND(0x1F); //
 8001620:	201f      	movs	r0, #31
 8001622:	f7ff ff65 	bl	80014f0 <SH1106_WriteCommand>
	SH1106_WRITECOMMAND(0xDA); //--set com pins hardware configuration
 8001626:	20da      	movs	r0, #218	@ 0xda
 8001628:	f7ff ff62 	bl	80014f0 <SH1106_WriteCommand>
	SH1106_WRITECOMMAND(0x12);
 800162c:	2012      	movs	r0, #18
 800162e:	f7ff ff5f 	bl	80014f0 <SH1106_WriteCommand>
	SH1106_WRITECOMMAND(0xDB); //--set vcomh
 8001632:	20db      	movs	r0, #219	@ 0xdb
 8001634:	f7ff ff5c 	bl	80014f0 <SH1106_WriteCommand>
	SH1106_WRITECOMMAND(0x40); //
 8001638:	2040      	movs	r0, #64	@ 0x40
 800163a:	f7ff ff59 	bl	80014f0 <SH1106_WriteCommand>
	SH1106_WRITECOMMAND(0xAF); //--turn on SH1106 panel
 800163e:	20af      	movs	r0, #175	@ 0xaf
 8001640:	f7ff ff56 	bl	80014f0 <SH1106_WriteCommand>


	/* Clear screen */
	SH1106_Fill(SH1106_COLOR_BLACK);
 8001644:	2000      	movs	r0, #0
 8001646:	f000 f841 	bl	80016cc <SH1106_Fill>
	
	/* Update screen */
	SH1106_UpdateScreen();
 800164a:	f000 f813 	bl	8001674 <SH1106_UpdateScreen>
	
	/* Set default values */
	SH1106.CurrentX = 0;
 800164e:	4b08      	ldr	r3, [pc, #32]	@ (8001670 <SH1106_Init+0xe0>)
 8001650:	2200      	movs	r2, #0
 8001652:	801a      	strh	r2, [r3, #0]
	SH1106.CurrentY = 0;
 8001654:	4b06      	ldr	r3, [pc, #24]	@ (8001670 <SH1106_Init+0xe0>)
 8001656:	2200      	movs	r2, #0
 8001658:	805a      	strh	r2, [r3, #2]
	
	/* Initialized OK */
	SH1106.Initialized = 1;
 800165a:	4b05      	ldr	r3, [pc, #20]	@ (8001670 <SH1106_Init+0xe0>)
 800165c:	2201      	movs	r2, #1
 800165e:	715a      	strb	r2, [r3, #5]
	
	/* Return OK */
	return 1;
 8001660:	2301      	movs	r3, #1
}
 8001662:	4618      	mov	r0, r3
 8001664:	3708      	adds	r7, #8
 8001666:	46bd      	mov	sp, r7
 8001668:	bd80      	pop	{r7, pc}
 800166a:	bf00      	nop
 800166c:	20000950 	.word	0x20000950
 8001670:	20000948 	.word	0x20000948

08001674 <SH1106_UpdateScreen>:

void SH1106_UpdateScreen(void) {
 8001674:	b580      	push	{r7, lr}
 8001676:	b082      	sub	sp, #8
 8001678:	af00      	add	r7, sp, #0
	uint8_t m;
	
	for (m = 0; m < 8; m++) {
 800167a:	2300      	movs	r3, #0
 800167c:	71fb      	strb	r3, [r7, #7]
 800167e:	e01a      	b.n	80016b6 <SH1106_UpdateScreen+0x42>
		SH1106_WRITECOMMAND(0xB0 + m);
 8001680:	79fb      	ldrb	r3, [r7, #7]
 8001682:	3b50      	subs	r3, #80	@ 0x50
 8001684:	b2db      	uxtb	r3, r3
 8001686:	4618      	mov	r0, r3
 8001688:	f7ff ff32 	bl	80014f0 <SH1106_WriteCommand>
		SH1106_WRITECOMMAND(0x00 + (SH1106_X_OFFSET & 0x0F));
 800168c:	2001      	movs	r0, #1
 800168e:	f7ff ff2f 	bl	80014f0 <SH1106_WriteCommand>
		SH1106_WRITECOMMAND(0x10);
 8001692:	2010      	movs	r0, #16
 8001694:	f7ff ff2c 	bl	80014f0 <SH1106_WriteCommand>
		
		/* Write multi data */
		SH1106_WriteDataMulti(&SH1106_Buffer[SH1106_WIDTH * m], SH1106_WIDTH);
 8001698:	79fa      	ldrb	r2, [r7, #7]
 800169a:	4613      	mov	r3, r2
 800169c:	015b      	lsls	r3, r3, #5
 800169e:	4413      	add	r3, r2
 80016a0:	009b      	lsls	r3, r3, #2
 80016a2:	461a      	mov	r2, r3
 80016a4:	4b08      	ldr	r3, [pc, #32]	@ (80016c8 <SH1106_UpdateScreen+0x54>)
 80016a6:	4413      	add	r3, r2
 80016a8:	2184      	movs	r1, #132	@ 0x84
 80016aa:	4618      	mov	r0, r3
 80016ac:	f7ff ff48 	bl	8001540 <SH1106_WriteDataMulti>
	for (m = 0; m < 8; m++) {
 80016b0:	79fb      	ldrb	r3, [r7, #7]
 80016b2:	3301      	adds	r3, #1
 80016b4:	71fb      	strb	r3, [r7, #7]
 80016b6:	79fb      	ldrb	r3, [r7, #7]
 80016b8:	2b07      	cmp	r3, #7
 80016ba:	d9e1      	bls.n	8001680 <SH1106_UpdateScreen+0xc>
	}
}
 80016bc:	bf00      	nop
 80016be:	bf00      	nop
 80016c0:	3708      	adds	r7, #8
 80016c2:	46bd      	mov	sp, r7
 80016c4:	bd80      	pop	{r7, pc}
 80016c6:	bf00      	nop
 80016c8:	20000528 	.word	0x20000528

080016cc <SH1106_Fill>:
	for (i = 0; i < sizeof(SH1106_Buffer); i++) {
		SH1106_Buffer[i] = ~SH1106_Buffer[i];
	}
}

void SH1106_Fill(SH1106_COLOR_t color) {
 80016cc:	b580      	push	{r7, lr}
 80016ce:	b082      	sub	sp, #8
 80016d0:	af00      	add	r7, sp, #0
 80016d2:	4603      	mov	r3, r0
 80016d4:	71fb      	strb	r3, [r7, #7]
	/* Set memory */
	memset(SH1106_Buffer, (color == SH1106_COLOR_BLACK) ? 0x00 : 0xFF, sizeof(SH1106_Buffer));
 80016d6:	79fb      	ldrb	r3, [r7, #7]
 80016d8:	2b00      	cmp	r3, #0
 80016da:	d101      	bne.n	80016e0 <SH1106_Fill+0x14>
 80016dc:	2300      	movs	r3, #0
 80016de:	e000      	b.n	80016e2 <SH1106_Fill+0x16>
 80016e0:	23ff      	movs	r3, #255	@ 0xff
 80016e2:	f44f 6284 	mov.w	r2, #1056	@ 0x420
 80016e6:	4619      	mov	r1, r3
 80016e8:	4803      	ldr	r0, [pc, #12]	@ (80016f8 <SH1106_Fill+0x2c>)
 80016ea:	f001 f87b 	bl	80027e4 <memset>
}
 80016ee:	bf00      	nop
 80016f0:	3708      	adds	r7, #8
 80016f2:	46bd      	mov	sp, r7
 80016f4:	bd80      	pop	{r7, pc}
 80016f6:	bf00      	nop
 80016f8:	20000528 	.word	0x20000528

080016fc <SH1106_DrawPixel>:

void SH1106_DrawPixel(uint16_t x, uint16_t y, SH1106_COLOR_t color) {
 80016fc:	b490      	push	{r4, r7}
 80016fe:	b082      	sub	sp, #8
 8001700:	af00      	add	r7, sp, #0
 8001702:	4603      	mov	r3, r0
 8001704:	80fb      	strh	r3, [r7, #6]
 8001706:	460b      	mov	r3, r1
 8001708:	80bb      	strh	r3, [r7, #4]
 800170a:	4613      	mov	r3, r2
 800170c:	70fb      	strb	r3, [r7, #3]
	if (
 800170e:	88fb      	ldrh	r3, [r7, #6]
 8001710:	2b83      	cmp	r3, #131	@ 0x83
 8001712:	d854      	bhi.n	80017be <SH1106_DrawPixel+0xc2>
		x >= SH1106_WIDTH ||
 8001714:	88bb      	ldrh	r3, [r7, #4]
 8001716:	2b3f      	cmp	r3, #63	@ 0x3f
 8001718:	d851      	bhi.n	80017be <SH1106_DrawPixel+0xc2>
		/* Error */
		return;
	}
	
	/* Check if pixels are inverted */
	if (SH1106.Inverted) {
 800171a:	4b2b      	ldr	r3, [pc, #172]	@ (80017c8 <SH1106_DrawPixel+0xcc>)
 800171c:	791b      	ldrb	r3, [r3, #4]
 800171e:	2b00      	cmp	r3, #0
 8001720:	d006      	beq.n	8001730 <SH1106_DrawPixel+0x34>
		color = (SH1106_COLOR_t)!color;
 8001722:	78fb      	ldrb	r3, [r7, #3]
 8001724:	2b00      	cmp	r3, #0
 8001726:	bf0c      	ite	eq
 8001728:	2301      	moveq	r3, #1
 800172a:	2300      	movne	r3, #0
 800172c:	b2db      	uxtb	r3, r3
 800172e:	70fb      	strb	r3, [r7, #3]
	}
	
	/* Set color */
	if (color == SH1106_COLOR_WHITE) {
 8001730:	78fb      	ldrb	r3, [r7, #3]
 8001732:	2b01      	cmp	r3, #1
 8001734:	d120      	bne.n	8001778 <SH1106_DrawPixel+0x7c>
		SH1106_Buffer[x + (y / 8) * SH1106_WIDTH] |= 1 << (y % 8);
 8001736:	88fa      	ldrh	r2, [r7, #6]
 8001738:	88bb      	ldrh	r3, [r7, #4]
 800173a:	08db      	lsrs	r3, r3, #3
 800173c:	b298      	uxth	r0, r3
 800173e:	4601      	mov	r1, r0
 8001740:	460b      	mov	r3, r1
 8001742:	015b      	lsls	r3, r3, #5
 8001744:	440b      	add	r3, r1
 8001746:	009b      	lsls	r3, r3, #2
 8001748:	4413      	add	r3, r2
 800174a:	4a20      	ldr	r2, [pc, #128]	@ (80017cc <SH1106_DrawPixel+0xd0>)
 800174c:	5cd3      	ldrb	r3, [r2, r3]
 800174e:	b25a      	sxtb	r2, r3
 8001750:	88bb      	ldrh	r3, [r7, #4]
 8001752:	f003 0307 	and.w	r3, r3, #7
 8001756:	2101      	movs	r1, #1
 8001758:	fa01 f303 	lsl.w	r3, r1, r3
 800175c:	b25b      	sxtb	r3, r3
 800175e:	4313      	orrs	r3, r2
 8001760:	b25c      	sxtb	r4, r3
 8001762:	88fa      	ldrh	r2, [r7, #6]
 8001764:	4601      	mov	r1, r0
 8001766:	460b      	mov	r3, r1
 8001768:	015b      	lsls	r3, r3, #5
 800176a:	440b      	add	r3, r1
 800176c:	009b      	lsls	r3, r3, #2
 800176e:	4413      	add	r3, r2
 8001770:	b2e1      	uxtb	r1, r4
 8001772:	4a16      	ldr	r2, [pc, #88]	@ (80017cc <SH1106_DrawPixel+0xd0>)
 8001774:	54d1      	strb	r1, [r2, r3]
 8001776:	e023      	b.n	80017c0 <SH1106_DrawPixel+0xc4>
	} else {
		SH1106_Buffer[x + (y / 8) * SH1106_WIDTH] &= ~(1 << (y % 8));
 8001778:	88fa      	ldrh	r2, [r7, #6]
 800177a:	88bb      	ldrh	r3, [r7, #4]
 800177c:	08db      	lsrs	r3, r3, #3
 800177e:	b298      	uxth	r0, r3
 8001780:	4601      	mov	r1, r0
 8001782:	460b      	mov	r3, r1
 8001784:	015b      	lsls	r3, r3, #5
 8001786:	440b      	add	r3, r1
 8001788:	009b      	lsls	r3, r3, #2
 800178a:	4413      	add	r3, r2
 800178c:	4a0f      	ldr	r2, [pc, #60]	@ (80017cc <SH1106_DrawPixel+0xd0>)
 800178e:	5cd3      	ldrb	r3, [r2, r3]
 8001790:	b25a      	sxtb	r2, r3
 8001792:	88bb      	ldrh	r3, [r7, #4]
 8001794:	f003 0307 	and.w	r3, r3, #7
 8001798:	2101      	movs	r1, #1
 800179a:	fa01 f303 	lsl.w	r3, r1, r3
 800179e:	b25b      	sxtb	r3, r3
 80017a0:	43db      	mvns	r3, r3
 80017a2:	b25b      	sxtb	r3, r3
 80017a4:	4013      	ands	r3, r2
 80017a6:	b25c      	sxtb	r4, r3
 80017a8:	88fa      	ldrh	r2, [r7, #6]
 80017aa:	4601      	mov	r1, r0
 80017ac:	460b      	mov	r3, r1
 80017ae:	015b      	lsls	r3, r3, #5
 80017b0:	440b      	add	r3, r1
 80017b2:	009b      	lsls	r3, r3, #2
 80017b4:	4413      	add	r3, r2
 80017b6:	b2e1      	uxtb	r1, r4
 80017b8:	4a04      	ldr	r2, [pc, #16]	@ (80017cc <SH1106_DrawPixel+0xd0>)
 80017ba:	54d1      	strb	r1, [r2, r3]
 80017bc:	e000      	b.n	80017c0 <SH1106_DrawPixel+0xc4>
		return;
 80017be:	bf00      	nop
	}
}
 80017c0:	3708      	adds	r7, #8
 80017c2:	46bd      	mov	sp, r7
 80017c4:	bc90      	pop	{r4, r7}
 80017c6:	4770      	bx	lr
 80017c8:	20000948 	.word	0x20000948
 80017cc:	20000528 	.word	0x20000528

080017d0 <SH1106_GotoXY>:

void SH1106_GotoXY(uint16_t x, uint16_t y) {
 80017d0:	b480      	push	{r7}
 80017d2:	b083      	sub	sp, #12
 80017d4:	af00      	add	r7, sp, #0
 80017d6:	4603      	mov	r3, r0
 80017d8:	460a      	mov	r2, r1
 80017da:	80fb      	strh	r3, [r7, #6]
 80017dc:	4613      	mov	r3, r2
 80017de:	80bb      	strh	r3, [r7, #4]
	/* Set write pointers */
	SH1106.CurrentX = x;
 80017e0:	4a05      	ldr	r2, [pc, #20]	@ (80017f8 <SH1106_GotoXY+0x28>)
 80017e2:	88fb      	ldrh	r3, [r7, #6]
 80017e4:	8013      	strh	r3, [r2, #0]
	SH1106.CurrentY = y;
 80017e6:	4a04      	ldr	r2, [pc, #16]	@ (80017f8 <SH1106_GotoXY+0x28>)
 80017e8:	88bb      	ldrh	r3, [r7, #4]
 80017ea:	8053      	strh	r3, [r2, #2]
}
 80017ec:	bf00      	nop
 80017ee:	370c      	adds	r7, #12
 80017f0:	46bd      	mov	sp, r7
 80017f2:	f85d 7b04 	ldr.w	r7, [sp], #4
 80017f6:	4770      	bx	lr
 80017f8:	20000948 	.word	0x20000948

080017fc <SH1106_Putc>:

char SH1106_Putc(char ch, FontDef_t* Font, SH1106_COLOR_t color) {
 80017fc:	b580      	push	{r7, lr}
 80017fe:	b086      	sub	sp, #24
 8001800:	af00      	add	r7, sp, #0
 8001802:	4603      	mov	r3, r0
 8001804:	6039      	str	r1, [r7, #0]
 8001806:	71fb      	strb	r3, [r7, #7]
 8001808:	4613      	mov	r3, r2
 800180a:	71bb      	strb	r3, [r7, #6]
	uint32_t i, b, j;
	
	/* Check available space in LCD */
	if (
		SH1106_WIDTH <= (SH1106.CurrentX + Font->FontWidth) ||
 800180c:	4b39      	ldr	r3, [pc, #228]	@ (80018f4 <SH1106_Putc+0xf8>)
 800180e:	881b      	ldrh	r3, [r3, #0]
 8001810:	461a      	mov	r2, r3
 8001812:	683b      	ldr	r3, [r7, #0]
 8001814:	781b      	ldrb	r3, [r3, #0]
 8001816:	4413      	add	r3, r2
	if (
 8001818:	2b83      	cmp	r3, #131	@ 0x83
 800181a:	dc07      	bgt.n	800182c <SH1106_Putc+0x30>
		SH1106_HEIGHT <= (SH1106.CurrentY + Font->FontHeight)
 800181c:	4b35      	ldr	r3, [pc, #212]	@ (80018f4 <SH1106_Putc+0xf8>)
 800181e:	885b      	ldrh	r3, [r3, #2]
 8001820:	461a      	mov	r2, r3
 8001822:	683b      	ldr	r3, [r7, #0]
 8001824:	785b      	ldrb	r3, [r3, #1]
 8001826:	4413      	add	r3, r2
		SH1106_WIDTH <= (SH1106.CurrentX + Font->FontWidth) ||
 8001828:	2b3f      	cmp	r3, #63	@ 0x3f
 800182a:	dd01      	ble.n	8001830 <SH1106_Putc+0x34>
	) {
		/* Error */
		return 0;
 800182c:	2300      	movs	r3, #0
 800182e:	e05d      	b.n	80018ec <SH1106_Putc+0xf0>
	}
	
	/* Go through font */
	for (i = 0; i < Font->FontHeight; i++) {
 8001830:	2300      	movs	r3, #0
 8001832:	617b      	str	r3, [r7, #20]
 8001834:	e04b      	b.n	80018ce <SH1106_Putc+0xd2>
		b = Font->data[(ch - 32) * Font->FontHeight + i];
 8001836:	683b      	ldr	r3, [r7, #0]
 8001838:	685a      	ldr	r2, [r3, #4]
 800183a:	79fb      	ldrb	r3, [r7, #7]
 800183c:	3b20      	subs	r3, #32
 800183e:	6839      	ldr	r1, [r7, #0]
 8001840:	7849      	ldrb	r1, [r1, #1]
 8001842:	fb01 f303 	mul.w	r3, r1, r3
 8001846:	4619      	mov	r1, r3
 8001848:	697b      	ldr	r3, [r7, #20]
 800184a:	440b      	add	r3, r1
 800184c:	005b      	lsls	r3, r3, #1
 800184e:	4413      	add	r3, r2
 8001850:	881b      	ldrh	r3, [r3, #0]
 8001852:	60fb      	str	r3, [r7, #12]
		for (j = 0; j < Font->FontWidth; j++) {
 8001854:	2300      	movs	r3, #0
 8001856:	613b      	str	r3, [r7, #16]
 8001858:	e030      	b.n	80018bc <SH1106_Putc+0xc0>
			if ((b << j) & 0x8000) {
 800185a:	68fa      	ldr	r2, [r7, #12]
 800185c:	693b      	ldr	r3, [r7, #16]
 800185e:	fa02 f303 	lsl.w	r3, r2, r3
 8001862:	f403 4300 	and.w	r3, r3, #32768	@ 0x8000
 8001866:	2b00      	cmp	r3, #0
 8001868:	d010      	beq.n	800188c <SH1106_Putc+0x90>
				SH1106_DrawPixel(SH1106.CurrentX + j, (SH1106.CurrentY + i), (SH1106_COLOR_t) color);
 800186a:	4b22      	ldr	r3, [pc, #136]	@ (80018f4 <SH1106_Putc+0xf8>)
 800186c:	881a      	ldrh	r2, [r3, #0]
 800186e:	693b      	ldr	r3, [r7, #16]
 8001870:	b29b      	uxth	r3, r3
 8001872:	4413      	add	r3, r2
 8001874:	b298      	uxth	r0, r3
 8001876:	4b1f      	ldr	r3, [pc, #124]	@ (80018f4 <SH1106_Putc+0xf8>)
 8001878:	885a      	ldrh	r2, [r3, #2]
 800187a:	697b      	ldr	r3, [r7, #20]
 800187c:	b29b      	uxth	r3, r3
 800187e:	4413      	add	r3, r2
 8001880:	b29b      	uxth	r3, r3
 8001882:	79ba      	ldrb	r2, [r7, #6]
 8001884:	4619      	mov	r1, r3
 8001886:	f7ff ff39 	bl	80016fc <SH1106_DrawPixel>
 800188a:	e014      	b.n	80018b6 <SH1106_Putc+0xba>
			} else {
				SH1106_DrawPixel(SH1106.CurrentX + j, (SH1106.CurrentY + i), (SH1106_COLOR_t)!color);
 800188c:	4b19      	ldr	r3, [pc, #100]	@ (80018f4 <SH1106_Putc+0xf8>)
 800188e:	881a      	ldrh	r2, [r3, #0]
 8001890:	693b      	ldr	r3, [r7, #16]
 8001892:	b29b      	uxth	r3, r3
 8001894:	4413      	add	r3, r2
 8001896:	b298      	uxth	r0, r3
 8001898:	4b16      	ldr	r3, [pc, #88]	@ (80018f4 <SH1106_Putc+0xf8>)
 800189a:	885a      	ldrh	r2, [r3, #2]
 800189c:	697b      	ldr	r3, [r7, #20]
 800189e:	b29b      	uxth	r3, r3
 80018a0:	4413      	add	r3, r2
 80018a2:	b299      	uxth	r1, r3
 80018a4:	79bb      	ldrb	r3, [r7, #6]
 80018a6:	2b00      	cmp	r3, #0
 80018a8:	bf0c      	ite	eq
 80018aa:	2301      	moveq	r3, #1
 80018ac:	2300      	movne	r3, #0
 80018ae:	b2db      	uxtb	r3, r3
 80018b0:	461a      	mov	r2, r3
 80018b2:	f7ff ff23 	bl	80016fc <SH1106_DrawPixel>
		for (j = 0; j < Font->FontWidth; j++) {
 80018b6:	693b      	ldr	r3, [r7, #16]
 80018b8:	3301      	adds	r3, #1
 80018ba:	613b      	str	r3, [r7, #16]
 80018bc:	683b      	ldr	r3, [r7, #0]
 80018be:	781b      	ldrb	r3, [r3, #0]
 80018c0:	461a      	mov	r2, r3
 80018c2:	693b      	ldr	r3, [r7, #16]
 80018c4:	4293      	cmp	r3, r2
 80018c6:	d3c8      	bcc.n	800185a <SH1106_Putc+0x5e>
	for (i = 0; i < Font->FontHeight; i++) {
 80018c8:	697b      	ldr	r3, [r7, #20]
 80018ca:	3301      	adds	r3, #1
 80018cc:	617b      	str	r3, [r7, #20]
 80018ce:	683b      	ldr	r3, [r7, #0]
 80018d0:	785b      	ldrb	r3, [r3, #1]
 80018d2:	461a      	mov	r2, r3
 80018d4:	697b      	ldr	r3, [r7, #20]
 80018d6:	4293      	cmp	r3, r2
 80018d8:	d3ad      	bcc.n	8001836 <SH1106_Putc+0x3a>
			}
		}
	}
	
	/* Increase pointer */
	SH1106.CurrentX += Font->FontWidth;
 80018da:	4b06      	ldr	r3, [pc, #24]	@ (80018f4 <SH1106_Putc+0xf8>)
 80018dc:	881b      	ldrh	r3, [r3, #0]
 80018de:	683a      	ldr	r2, [r7, #0]
 80018e0:	7812      	ldrb	r2, [r2, #0]
 80018e2:	4413      	add	r3, r2
 80018e4:	b29a      	uxth	r2, r3
 80018e6:	4b03      	ldr	r3, [pc, #12]	@ (80018f4 <SH1106_Putc+0xf8>)
 80018e8:	801a      	strh	r2, [r3, #0]
	
	/* Return character written */
	return ch;
 80018ea:	79fb      	ldrb	r3, [r7, #7]
}
 80018ec:	4618      	mov	r0, r3
 80018ee:	3718      	adds	r7, #24
 80018f0:	46bd      	mov	sp, r7
 80018f2:	bd80      	pop	{r7, pc}
 80018f4:	20000948 	.word	0x20000948

080018f8 <SH1106_Puts>:

char SH1106_Puts(char* str, FontDef_t* Font, SH1106_COLOR_t color) {
 80018f8:	b580      	push	{r7, lr}
 80018fa:	b084      	sub	sp, #16
 80018fc:	af00      	add	r7, sp, #0
 80018fe:	60f8      	str	r0, [r7, #12]
 8001900:	60b9      	str	r1, [r7, #8]
 8001902:	4613      	mov	r3, r2
 8001904:	71fb      	strb	r3, [r7, #7]
	/* Write characters */
	while (*str) {
 8001906:	e012      	b.n	800192e <SH1106_Puts+0x36>
		/* Write character by character */
		if (SH1106_Putc(*str, Font, color) != *str) {
 8001908:	68fb      	ldr	r3, [r7, #12]
 800190a:	781b      	ldrb	r3, [r3, #0]
 800190c:	79fa      	ldrb	r2, [r7, #7]
 800190e:	68b9      	ldr	r1, [r7, #8]
 8001910:	4618      	mov	r0, r3
 8001912:	f7ff ff73 	bl	80017fc <SH1106_Putc>
 8001916:	4603      	mov	r3, r0
 8001918:	461a      	mov	r2, r3
 800191a:	68fb      	ldr	r3, [r7, #12]
 800191c:	781b      	ldrb	r3, [r3, #0]
 800191e:	429a      	cmp	r2, r3
 8001920:	d002      	beq.n	8001928 <SH1106_Puts+0x30>
			/* Return error */
			return *str;
 8001922:	68fb      	ldr	r3, [r7, #12]
 8001924:	781b      	ldrb	r3, [r3, #0]
 8001926:	e008      	b.n	800193a <SH1106_Puts+0x42>
		}
		
		/* Increase string pointer */
		str++;
 8001928:	68fb      	ldr	r3, [r7, #12]
 800192a:	3301      	adds	r3, #1
 800192c:	60fb      	str	r3, [r7, #12]
	while (*str) {
 800192e:	68fb      	ldr	r3, [r7, #12]
 8001930:	781b      	ldrb	r3, [r3, #0]
 8001932:	2b00      	cmp	r3, #0
 8001934:	d1e8      	bne.n	8001908 <SH1106_Puts+0x10>
	}
	
	/* Everything OK, zero should be returned */
	return *str;
 8001936:	68fb      	ldr	r3, [r7, #12]
 8001938:	781b      	ldrb	r3, [r3, #0]
}
 800193a:	4618      	mov	r0, r3
 800193c:	3710      	adds	r7, #16
 800193e:	46bd      	mov	sp, r7
 8001940:	bd80      	pop	{r7, pc}
	...

08001944 <__NVIC_EnableIRQ>:
  \details Enables a device specific interrupt in the NVIC interrupt controller.
  \param [in]      IRQn  Device specific interrupt number.
  \note    IRQn must not be negative.
 */
__STATIC_INLINE void __NVIC_EnableIRQ(IRQn_Type IRQn)
{
 8001944:	b480      	push	{r7}
 8001946:	b083      	sub	sp, #12
 8001948:	af00      	add	r7, sp, #0
 800194a:	4603      	mov	r3, r0
 800194c:	71fb      	strb	r3, [r7, #7]
  if ((int32_t)(IRQn) >= 0)
 800194e:	f997 3007 	ldrsb.w	r3, [r7, #7]
 8001952:	2b00      	cmp	r3, #0
 8001954:	db0b      	blt.n	800196e <__NVIC_EnableIRQ+0x2a>
  {
    __COMPILER_BARRIER();
    NVIC->ISER[(((uint32_t)IRQn) >> 5UL)] = (uint32_t)(1UL << (((uint32_t)IRQn) & 0x1FUL));
 8001956:	79fb      	ldrb	r3, [r7, #7]
 8001958:	f003 021f 	and.w	r2, r3, #31
 800195c:	4907      	ldr	r1, [pc, #28]	@ (800197c <__NVIC_EnableIRQ+0x38>)
 800195e:	f997 3007 	ldrsb.w	r3, [r7, #7]
 8001962:	095b      	lsrs	r3, r3, #5
 8001964:	2001      	movs	r0, #1
 8001966:	fa00 f202 	lsl.w	r2, r0, r2
 800196a:	f841 2023 	str.w	r2, [r1, r3, lsl #2]
    __COMPILER_BARRIER();
  }
}
 800196e:	bf00      	nop
 8001970:	370c      	adds	r7, #12
 8001972:	46bd      	mov	sp, r7
 8001974:	f85d 7b04 	ldr.w	r7, [sp], #4
 8001978:	4770      	bx	lr
 800197a:	bf00      	nop
 800197c:	e000e100 	.word	0xe000e100

08001980 <__NVIC_SetPriority>:
  \param [in]      IRQn  Interrupt number.
  \param [in]  priority  Priority to set.
  \note    The priority cannot be set for every processor exception.
 */
__STATIC_INLINE void __NVIC_SetPriority(IRQn_Type IRQn, uint32_t priority)
{
 8001980:	b480      	push	{r7}
 8001982:	b083      	sub	sp, #12
 8001984:	af00      	add	r7, sp, #0
 8001986:	4603      	mov	r3, r0
 8001988:	6039      	str	r1, [r7, #0]
 800198a:	71fb      	strb	r3, [r7, #7]
  if ((int32_t)(IRQn) >= 0)
 800198c:	f997 3007 	ldrsb.w	r3, [r7, #7]
 8001990:	2b00      	cmp	r3, #0
 8001992:	db0a      	blt.n	80019aa <__NVIC_SetPriority+0x2a>
  {
    NVIC->IPR[((uint32_t)IRQn)]               = (uint8_t)((priority << (8U - __NVIC_PRIO_BITS)) & (uint32_t)0xFFUL);
 8001994:	683b      	ldr	r3, [r7, #0]
 8001996:	b2da      	uxtb	r2, r3
 8001998:	490c      	ldr	r1, [pc, #48]	@ (80019cc <__NVIC_SetPriority+0x4c>)
 800199a:	f997 3007 	ldrsb.w	r3, [r7, #7]
 800199e:	0112      	lsls	r2, r2, #4
 80019a0:	b2d2      	uxtb	r2, r2
 80019a2:	440b      	add	r3, r1
 80019a4:	f883 2300 	strb.w	r2, [r3, #768]	@ 0x300
  }
  else
  {
    SCB->SHPR[(((uint32_t)IRQn) & 0xFUL)-4UL] = (uint8_t)((priority << (8U - __NVIC_PRIO_BITS)) & (uint32_t)0xFFUL);
  }
}
 80019a8:	e00a      	b.n	80019c0 <__NVIC_SetPriority+0x40>
    SCB->SHPR[(((uint32_t)IRQn) & 0xFUL)-4UL] = (uint8_t)((priority << (8U - __NVIC_PRIO_BITS)) & (uint32_t)0xFFUL);
 80019aa:	683b      	ldr	r3, [r7, #0]
 80019ac:	b2da      	uxtb	r2, r3
 80019ae:	4908      	ldr	r1, [pc, #32]	@ (80019d0 <__NVIC_SetPriority+0x50>)
 80019b0:	79fb      	ldrb	r3, [r7, #7]
 80019b2:	f003 030f 	and.w	r3, r3, #15
 80019b6:	3b04      	subs	r3, #4
 80019b8:	0112      	lsls	r2, r2, #4
 80019ba:	b2d2      	uxtb	r2, r2
 80019bc:	440b      	add	r3, r1
 80019be:	761a      	strb	r2, [r3, #24]
}
 80019c0:	bf00      	nop
 80019c2:	370c      	adds	r7, #12
 80019c4:	46bd      	mov	sp, r7
 80019c6:	f85d 7b04 	ldr.w	r7, [sp], #4
 80019ca:	4770      	bx	lr
 80019cc:	e000e100 	.word	0xe000e100
 80019d0:	e000ed00 	.word	0xe000ed00

080019d4 <USART_GetAPBClock>:
 * @brief Get the APB clock frequency for a given USART.
 * @param port USART1 or USART2
 * @return APB clock in Hz
 */
static uint32_t USART_GetAPBClock(USART_TypeDef *port)
{
 80019d4:	b480      	push	{r7}
 80019d6:	b085      	sub	sp, #20
 80019d8:	af00      	add	r7, sp, #0
 80019da:	6078      	str	r0, [r7, #4]
    uint32_t clock = SystemCoreClock;
 80019dc:	4b17      	ldr	r3, [pc, #92]	@ (8001a3c <USART_GetAPBClock+0x68>)
 80019de:	681b      	ldr	r3, [r3, #0]
 80019e0:	60fb      	str	r3, [r7, #12]
    uint32_t presc;
    if (port == USART1) {
 80019e2:	687b      	ldr	r3, [r7, #4]
 80019e4:	4a16      	ldr	r2, [pc, #88]	@ (8001a40 <USART_GetAPBClock+0x6c>)
 80019e6:	4293      	cmp	r3, r2
 80019e8:	d110      	bne.n	8001a0c <USART_GetAPBClock+0x38>
        // USART1 is on APB2
        presc = (RCC->CFGR & RCC_CFGR_PPRE2) >> RCC_CFGR_PPRE2_Pos;
 80019ea:	4b16      	ldr	r3, [pc, #88]	@ (8001a44 <USART_GetAPBClock+0x70>)
 80019ec:	689b      	ldr	r3, [r3, #8]
 80019ee:	0b5b      	lsrs	r3, r3, #13
 80019f0:	f003 0307 	and.w	r3, r3, #7
 80019f4:	60bb      	str	r3, [r7, #8]
        presc = APBPrescTable[presc];
 80019f6:	4a14      	ldr	r2, [pc, #80]	@ (8001a48 <USART_GetAPBClock+0x74>)
 80019f8:	68bb      	ldr	r3, [r7, #8]
 80019fa:	4413      	add	r3, r2
 80019fc:	781b      	ldrb	r3, [r3, #0]
 80019fe:	60bb      	str	r3, [r7, #8]
        clock >>= presc;
 8001a00:	68fa      	ldr	r2, [r7, #12]
 8001a02:	68bb      	ldr	r3, [r7, #8]
 8001a04:	fa22 f303 	lsr.w	r3, r2, r3
 8001a08:	60fb      	str	r3, [r7, #12]
 8001a0a:	e00f      	b.n	8001a2c <USART_GetAPBClock+0x58>
    } else {
        // USART2/3/4/5/6 on APB1
        presc = (RCC->CFGR & RCC_CFGR_PPRE1) >> RCC_CFGR_PPRE1_Pos;
 8001a0c:	4b0d      	ldr	r3, [pc, #52]	@ (8001a44 <USART_GetAPBClock+0x70>)
 8001a0e:	689b      	ldr	r3, [r3, #8]
 8001a10:	0a9b      	lsrs	r3, r3, #10
 8001a12:	f003 0307 	and.w	r3, r3, #7
 8001a16:	60bb      	str	r3, [r7, #8]
        presc = APBPrescTable[presc];
 8001a18:	4a0b      	ldr	r2, [pc, #44]	@ (8001a48 <USART_GetAPBClock+0x74>)
 8001a1a:	68bb      	ldr	r3, [r7, #8]
 8001a1c:	4413      	add	r3, r2
 8001a1e:	781b      	ldrb	r3, [r3, #0]
 8001a20:	60bb      	str	r3, [r7, #8]
        clock >>= presc;
 8001a22:	68fa      	ldr	r2, [r7, #12]
 8001a24:	68bb      	ldr	r3, [r7, #8]
 8001a26:	fa22 f303 	lsr.w	r3, r2, r3
 8001a2a:	60fb      	str	r3, [r7, #12]
    }
    return clock;
 8001a2c:	68fb      	ldr	r3, [r7, #12]
}
 8001a2e:	4618      	mov	r0, r3
 8001a30:	3714      	adds	r7, #20
 8001a32:	46bd      	mov	sp, r7
 8001a34:	f85d 7b04 	ldr.w	r7, [sp], #4
 8001a38:	4770      	bx	lr
 8001a3a:	bf00      	nop
 8001a3c:	20000000 	.word	0x20000000
 8001a40:	40011000 	.word	0x40011000
 8001a44:	40023800 	.word	0x40023800
 8001a48:	0800325c 	.word	0x0800325c

08001a4c <UART_ConfigPins>:
/**
 * @brief Configure USART pins for asynchronous mode (TX/RX only).
 * @param uart  Handle with port selection.
 */
static void UART_ConfigPins(UART_Handle_t *uart)
{
 8001a4c:	b580      	push	{r7, lr}
 8001a4e:	b082      	sub	sp, #8
 8001a50:	af00      	add	r7, sp, #0
 8001a52:	6078      	str	r0, [r7, #4]
    if (uart->port == USART1) {
 8001a54:	687b      	ldr	r3, [r7, #4]
 8001a56:	681b      	ldr	r3, [r3, #0]
 8001a58:	4a12      	ldr	r2, [pc, #72]	@ (8001aa4 <UART_ConfigPins+0x58>)
 8001a5a:	4293      	cmp	r3, r2
 8001a5c:	d10c      	bne.n	8001a78 <UART_ConfigPins+0x2c>
        // PA9 (TX), PA10 (RX)
        GPIO_Pin_Setup(GPIOA, GPIO_PIN_9,  ALTERNATE_FUNCTION_OUTPUT_PUSHPULL, AF7_USART1_USART2);
 8001a5e:	2307      	movs	r3, #7
 8001a60:	228c      	movs	r2, #140	@ 0x8c
 8001a62:	2109      	movs	r1, #9
 8001a64:	4810      	ldr	r0, [pc, #64]	@ (8001aa8 <UART_ConfigPins+0x5c>)
 8001a66:	f7ff f999 	bl	8000d9c <GPIO_Pin_Setup>
        GPIO_Pin_Setup(GPIOA, GPIO_PIN_10, ALTERNATE_FUNCTION_OUTPUT_PUSHPULL, AF7_USART1_USART2);
 8001a6a:	2307      	movs	r3, #7
 8001a6c:	228c      	movs	r2, #140	@ 0x8c
 8001a6e:	210a      	movs	r1, #10
 8001a70:	480d      	ldr	r0, [pc, #52]	@ (8001aa8 <UART_ConfigPins+0x5c>)
 8001a72:	f7ff f993 	bl	8000d9c <GPIO_Pin_Setup>
        // PA2 (TX), PA3 (RX)
        GPIO_Pin_Setup(GPIOA, GPIO_PIN_2, ALTERNATE_FUNCTION_OUTPUT_PUSHPULL, AF7_USART1_USART2);
        GPIO_Pin_Setup(GPIOA, GPIO_PIN_3, ALTERNATE_FUNCTION_OUTPUT_PUSHPULL, AF7_USART1_USART2);
    }
    // Add other ports (USART3, UART4, etc.) as needed
}
 8001a76:	e010      	b.n	8001a9a <UART_ConfigPins+0x4e>
    else if (uart->port == USART2) {
 8001a78:	687b      	ldr	r3, [r7, #4]
 8001a7a:	681b      	ldr	r3, [r3, #0]
 8001a7c:	4a0b      	ldr	r2, [pc, #44]	@ (8001aac <UART_ConfigPins+0x60>)
 8001a7e:	4293      	cmp	r3, r2
 8001a80:	d10b      	bne.n	8001a9a <UART_ConfigPins+0x4e>
        GPIO_Pin_Setup(GPIOA, GPIO_PIN_2, ALTERNATE_FUNCTION_OUTPUT_PUSHPULL, AF7_USART1_USART2);
 8001a82:	2307      	movs	r3, #7
 8001a84:	228c      	movs	r2, #140	@ 0x8c
 8001a86:	2102      	movs	r1, #2
 8001a88:	4807      	ldr	r0, [pc, #28]	@ (8001aa8 <UART_ConfigPins+0x5c>)
 8001a8a:	f7ff f987 	bl	8000d9c <GPIO_Pin_Setup>
        GPIO_Pin_Setup(GPIOA, GPIO_PIN_3, ALTERNATE_FUNCTION_OUTPUT_PUSHPULL, AF7_USART1_USART2);
 8001a8e:	2307      	movs	r3, #7
 8001a90:	228c      	movs	r2, #140	@ 0x8c
 8001a92:	2103      	movs	r1, #3
 8001a94:	4804      	ldr	r0, [pc, #16]	@ (8001aa8 <UART_ConfigPins+0x5c>)
 8001a96:	f7ff f981 	bl	8000d9c <GPIO_Pin_Setup>
}
 8001a9a:	bf00      	nop
 8001a9c:	3708      	adds	r7, #8
 8001a9e:	46bd      	mov	sp, r7
 8001aa0:	bd80      	pop	{r7, pc}
 8001aa2:	bf00      	nop
 8001aa4:	40011000 	.word	0x40011000
 8001aa8:	40020000 	.word	0x40020000
 8001aac:	40004400 	.word	0x40004400

08001ab0 <UART_Init>:
/**
 * @brief Initialize USART in asynchronous mode (UART).
 * @param uart  Handle with baudrate, mode, flow control, DMA settings.
 */
void UART_Init(UART_Handle_t *uart)
{
 8001ab0:	b580      	push	{r7, lr}
 8001ab2:	b086      	sub	sp, #24
 8001ab4:	af00      	add	r7, sp, #0
 8001ab6:	6078      	str	r0, [r7, #4]
    // 1. Enable clocks and configure GPIO
    if (uart->port == USART1) {
 8001ab8:	687b      	ldr	r3, [r7, #4]
 8001aba:	681b      	ldr	r3, [r3, #0]
 8001abc:	4a6d      	ldr	r2, [pc, #436]	@ (8001c74 <UART_Init+0x1c4>)
 8001abe:	4293      	cmp	r3, r2
 8001ac0:	d106      	bne.n	8001ad0 <UART_Init+0x20>
        RCC->APB2ENR |= RCC_APB2ENR_USART1EN;
 8001ac2:	4b6d      	ldr	r3, [pc, #436]	@ (8001c78 <UART_Init+0x1c8>)
 8001ac4:	6c5b      	ldr	r3, [r3, #68]	@ 0x44
 8001ac6:	4a6c      	ldr	r2, [pc, #432]	@ (8001c78 <UART_Init+0x1c8>)
 8001ac8:	f043 0310 	orr.w	r3, r3, #16
 8001acc:	6453      	str	r3, [r2, #68]	@ 0x44
 8001ace:	e00a      	b.n	8001ae6 <UART_Init+0x36>
    } else if (uart->port == USART2) {
 8001ad0:	687b      	ldr	r3, [r7, #4]
 8001ad2:	681b      	ldr	r3, [r3, #0]
 8001ad4:	4a69      	ldr	r2, [pc, #420]	@ (8001c7c <UART_Init+0x1cc>)
 8001ad6:	4293      	cmp	r3, r2
 8001ad8:	d105      	bne.n	8001ae6 <UART_Init+0x36>
        RCC->APB1ENR |= RCC_APB1ENR_USART2EN;
 8001ada:	4b67      	ldr	r3, [pc, #412]	@ (8001c78 <UART_Init+0x1c8>)
 8001adc:	6c1b      	ldr	r3, [r3, #64]	@ 0x40
 8001ade:	4a66      	ldr	r2, [pc, #408]	@ (8001c78 <UART_Init+0x1c8>)
 8001ae0:	f443 3300 	orr.w	r3, r3, #131072	@ 0x20000
 8001ae4:	6413      	str	r3, [r2, #64]	@ 0x40
    }
    UART_ConfigPins(uart);
 8001ae6:	6878      	ldr	r0, [r7, #4]
 8001ae8:	f7ff ffb0 	bl	8001a4c <UART_ConfigPins>

    // 2. Compute baudrate registers
    uint32_t apb_clock = USART_GetAPBClock(uart->port);
 8001aec:	687b      	ldr	r3, [r7, #4]
 8001aee:	681b      	ldr	r3, [r3, #0]
 8001af0:	4618      	mov	r0, r3
 8001af2:	f7ff ff6f 	bl	80019d4 <USART_GetAPBClock>
 8001af6:	60f8      	str	r0, [r7, #12]
    uint32_t usartdiv = (apb_clock * 10) / (uart->baudrate * 16); // scaled for fraction
 8001af8:	68fa      	ldr	r2, [r7, #12]
 8001afa:	4613      	mov	r3, r2
 8001afc:	009b      	lsls	r3, r3, #2
 8001afe:	4413      	add	r3, r2
 8001b00:	005b      	lsls	r3, r3, #1
 8001b02:	461a      	mov	r2, r3
 8001b04:	687b      	ldr	r3, [r7, #4]
 8001b06:	689b      	ldr	r3, [r3, #8]
 8001b08:	011b      	lsls	r3, r3, #4
 8001b0a:	fbb2 f3f3 	udiv	r3, r2, r3
 8001b0e:	60bb      	str	r3, [r7, #8]
    uint32_t mantissa = usartdiv / 10;
 8001b10:	68bb      	ldr	r3, [r7, #8]
 8001b12:	4a5b      	ldr	r2, [pc, #364]	@ (8001c80 <UART_Init+0x1d0>)
 8001b14:	fba2 2303 	umull	r2, r3, r2, r3
 8001b18:	08db      	lsrs	r3, r3, #3
 8001b1a:	617b      	str	r3, [r7, #20]
    uint32_t fraction = (usartdiv % 10) * 16 / 10; // convert to 4-bit fraction
 8001b1c:	68b9      	ldr	r1, [r7, #8]
 8001b1e:	4b58      	ldr	r3, [pc, #352]	@ (8001c80 <UART_Init+0x1d0>)
 8001b20:	fba3 2301 	umull	r2, r3, r3, r1
 8001b24:	08da      	lsrs	r2, r3, #3
 8001b26:	4613      	mov	r3, r2
 8001b28:	009b      	lsls	r3, r3, #2
 8001b2a:	4413      	add	r3, r2
 8001b2c:	005b      	lsls	r3, r3, #1
 8001b2e:	1aca      	subs	r2, r1, r3
 8001b30:	0113      	lsls	r3, r2, #4
 8001b32:	4a53      	ldr	r2, [pc, #332]	@ (8001c80 <UART_Init+0x1d0>)
 8001b34:	fba2 2303 	umull	r2, r3, r2, r3
 8001b38:	08db      	lsrs	r3, r3, #3
 8001b3a:	613b      	str	r3, [r7, #16]
    if (fraction >= 16) {
 8001b3c:	693b      	ldr	r3, [r7, #16]
 8001b3e:	2b0f      	cmp	r3, #15
 8001b40:	d904      	bls.n	8001b4c <UART_Init+0x9c>
        mantissa++;
 8001b42:	697b      	ldr	r3, [r7, #20]
 8001b44:	3301      	adds	r3, #1
 8001b46:	617b      	str	r3, [r7, #20]
        fraction = 0;
 8001b48:	2300      	movs	r3, #0
 8001b4a:	613b      	str	r3, [r7, #16]
    }
    uart->port->BRR = (mantissa << 4) | (fraction & 0x0F);
 8001b4c:	697b      	ldr	r3, [r7, #20]
 8001b4e:	0119      	lsls	r1, r3, #4
 8001b50:	693b      	ldr	r3, [r7, #16]
 8001b52:	f003 020f 	and.w	r2, r3, #15
 8001b56:	687b      	ldr	r3, [r7, #4]
 8001b58:	681b      	ldr	r3, [r3, #0]
 8001b5a:	430a      	orrs	r2, r1
 8001b5c:	609a      	str	r2, [r3, #8]

    // 3. Disable peripheral before full config
    uart->port->CR1 &= ~USART_CR1_UE;
 8001b5e:	687b      	ldr	r3, [r7, #4]
 8001b60:	681b      	ldr	r3, [r3, #0]
 8001b62:	68da      	ldr	r2, [r3, #12]
 8001b64:	687b      	ldr	r3, [r7, #4]
 8001b66:	681b      	ldr	r3, [r3, #0]
 8001b68:	f422 5200 	bic.w	r2, r2, #8192	@ 0x2000
 8001b6c:	60da      	str	r2, [r3, #12]

    // 4. Configure mode (half/full duplex)
    if (uart->mode == HALF_DUPLEX)
 8001b6e:	687b      	ldr	r3, [r7, #4]
 8001b70:	791b      	ldrb	r3, [r3, #4]
 8001b72:	2b01      	cmp	r3, #1
 8001b74:	d108      	bne.n	8001b88 <UART_Init+0xd8>
        uart->port->CR3 |= USART_CR3_HDSEL;
 8001b76:	687b      	ldr	r3, [r7, #4]
 8001b78:	681b      	ldr	r3, [r3, #0]
 8001b7a:	695a      	ldr	r2, [r3, #20]
 8001b7c:	687b      	ldr	r3, [r7, #4]
 8001b7e:	681b      	ldr	r3, [r3, #0]
 8001b80:	f042 0208 	orr.w	r2, r2, #8
 8001b84:	615a      	str	r2, [r3, #20]
 8001b86:	e007      	b.n	8001b98 <UART_Init+0xe8>
    else
        uart->port->CR3 &= ~USART_CR3_HDSEL;
 8001b88:	687b      	ldr	r3, [r7, #4]
 8001b8a:	681b      	ldr	r3, [r3, #0]
 8001b8c:	695a      	ldr	r2, [r3, #20]
 8001b8e:	687b      	ldr	r3, [r7, #4]
 8001b90:	681b      	ldr	r3, [r3, #0]
 8001b92:	f022 0208 	bic.w	r2, r2, #8
 8001b96:	615a      	str	r2, [r3, #20]

    // 5. DMA settings
    if (uart->TX_DMA)
 8001b98:	687b      	ldr	r3, [r7, #4]
 8001b9a:	7b5b      	ldrb	r3, [r3, #13]
 8001b9c:	2b00      	cmp	r3, #0
 8001b9e:	d008      	beq.n	8001bb2 <UART_Init+0x102>
        uart->port->CR3 |= USART_CR3_DMAT;
 8001ba0:	687b      	ldr	r3, [r7, #4]
 8001ba2:	681b      	ldr	r3, [r3, #0]
 8001ba4:	695a      	ldr	r2, [r3, #20]
 8001ba6:	687b      	ldr	r3, [r7, #4]
 8001ba8:	681b      	ldr	r3, [r3, #0]
 8001baa:	f042 0280 	orr.w	r2, r2, #128	@ 0x80
 8001bae:	615a      	str	r2, [r3, #20]
 8001bb0:	e007      	b.n	8001bc2 <UART_Init+0x112>
    else
        uart->port->CR3 &= ~USART_CR3_DMAT;
 8001bb2:	687b      	ldr	r3, [r7, #4]
 8001bb4:	681b      	ldr	r3, [r3, #0]
 8001bb6:	695a      	ldr	r2, [r3, #20]
 8001bb8:	687b      	ldr	r3, [r7, #4]
 8001bba:	681b      	ldr	r3, [r3, #0]
 8001bbc:	f022 0280 	bic.w	r2, r2, #128	@ 0x80
 8001bc0:	615a      	str	r2, [r3, #20]

    if (uart->RX_DMA)
 8001bc2:	687b      	ldr	r3, [r7, #4]
 8001bc4:	7b9b      	ldrb	r3, [r3, #14]
 8001bc6:	2b00      	cmp	r3, #0
 8001bc8:	d008      	beq.n	8001bdc <UART_Init+0x12c>
        uart->port->CR3 |= USART_CR3_DMAR;
 8001bca:	687b      	ldr	r3, [r7, #4]
 8001bcc:	681b      	ldr	r3, [r3, #0]
 8001bce:	695a      	ldr	r2, [r3, #20]
 8001bd0:	687b      	ldr	r3, [r7, #4]
 8001bd2:	681b      	ldr	r3, [r3, #0]
 8001bd4:	f042 0240 	orr.w	r2, r2, #64	@ 0x40
 8001bd8:	615a      	str	r2, [r3, #20]
 8001bda:	e007      	b.n	8001bec <UART_Init+0x13c>
    else
        uart->port->CR3 &= ~USART_CR3_DMAR;
 8001bdc:	687b      	ldr	r3, [r7, #4]
 8001bde:	681b      	ldr	r3, [r3, #0]
 8001be0:	695a      	ldr	r2, [r3, #20]
 8001be2:	687b      	ldr	r3, [r7, #4]
 8001be4:	681b      	ldr	r3, [r3, #0]
 8001be6:	f022 0240 	bic.w	r2, r2, #64	@ 0x40
 8001bea:	615a      	str	r2, [r3, #20]

    // 6. Hardware flow control (CTS/RTS)
    if (uart->hardware_control)
 8001bec:	687b      	ldr	r3, [r7, #4]
 8001bee:	7b1b      	ldrb	r3, [r3, #12]
 8001bf0:	2b00      	cmp	r3, #0
 8001bf2:	d008      	beq.n	8001c06 <UART_Init+0x156>
        uart->port->CR3 |= (USART_CR3_CTSE | USART_CR3_RTSE);
 8001bf4:	687b      	ldr	r3, [r7, #4]
 8001bf6:	681b      	ldr	r3, [r3, #0]
 8001bf8:	695a      	ldr	r2, [r3, #20]
 8001bfa:	687b      	ldr	r3, [r7, #4]
 8001bfc:	681b      	ldr	r3, [r3, #0]
 8001bfe:	f442 7240 	orr.w	r2, r2, #768	@ 0x300
 8001c02:	615a      	str	r2, [r3, #20]
 8001c04:	e007      	b.n	8001c16 <UART_Init+0x166>
    else
        uart->port->CR3 &= ~(USART_CR3_CTSE | USART_CR3_RTSE);
 8001c06:	687b      	ldr	r3, [r7, #4]
 8001c08:	681b      	ldr	r3, [r3, #0]
 8001c0a:	695a      	ldr	r2, [r3, #20]
 8001c0c:	687b      	ldr	r3, [r7, #4]
 8001c0e:	681b      	ldr	r3, [r3, #0]
 8001c10:	f422 7240 	bic.w	r2, r2, #768	@ 0x300
 8001c14:	615a      	str	r2, [r3, #20]

    // 7. Enable transmitter, receiver, and USART
    uart->port->CR1 |= (USART_CR1_TE | USART_CR1_RE | USART_CR1_UE);
 8001c16:	687b      	ldr	r3, [r7, #4]
 8001c18:	681b      	ldr	r3, [r3, #0]
 8001c1a:	68db      	ldr	r3, [r3, #12]
 8001c1c:	687a      	ldr	r2, [r7, #4]
 8001c1e:	6812      	ldr	r2, [r2, #0]
 8001c20:	f443 5300 	orr.w	r3, r3, #8192	@ 0x2000
 8001c24:	f043 030c 	orr.w	r3, r3, #12
 8001c28:	60d3      	str	r3, [r2, #12]

    // 8. Enable RX interrupt (to use global buffers)
    uart->port->CR1 |= USART_CR1_RXNEIE;
 8001c2a:	687b      	ldr	r3, [r7, #4]
 8001c2c:	681b      	ldr	r3, [r3, #0]
 8001c2e:	68da      	ldr	r2, [r3, #12]
 8001c30:	687b      	ldr	r3, [r7, #4]
 8001c32:	681b      	ldr	r3, [r3, #0]
 8001c34:	f042 0220 	orr.w	r2, r2, #32
 8001c38:	60da      	str	r2, [r3, #12]

    // 9. Enable NVIC
    if (uart->port == USART1) {
 8001c3a:	687b      	ldr	r3, [r7, #4]
 8001c3c:	681b      	ldr	r3, [r3, #0]
 8001c3e:	4a0d      	ldr	r2, [pc, #52]	@ (8001c74 <UART_Init+0x1c4>)
 8001c40:	4293      	cmp	r3, r2
 8001c42:	d107      	bne.n	8001c54 <UART_Init+0x1a4>
        NVIC_EnableIRQ(USART1_IRQn);
 8001c44:	2025      	movs	r0, #37	@ 0x25
 8001c46:	f7ff fe7d 	bl	8001944 <__NVIC_EnableIRQ>
        NVIC_SetPriority(USART1_IRQn, 1);
 8001c4a:	2101      	movs	r1, #1
 8001c4c:	2025      	movs	r0, #37	@ 0x25
 8001c4e:	f7ff fe97 	bl	8001980 <__NVIC_SetPriority>
    } else if (uart->port == USART2) {
        NVIC_EnableIRQ(USART2_IRQn);
        NVIC_SetPriority(USART2_IRQn, 1);
    }
}
 8001c52:	e00b      	b.n	8001c6c <UART_Init+0x1bc>
    } else if (uart->port == USART2) {
 8001c54:	687b      	ldr	r3, [r7, #4]
 8001c56:	681b      	ldr	r3, [r3, #0]
 8001c58:	4a08      	ldr	r2, [pc, #32]	@ (8001c7c <UART_Init+0x1cc>)
 8001c5a:	4293      	cmp	r3, r2
 8001c5c:	d106      	bne.n	8001c6c <UART_Init+0x1bc>
        NVIC_EnableIRQ(USART2_IRQn);
 8001c5e:	2026      	movs	r0, #38	@ 0x26
 8001c60:	f7ff fe70 	bl	8001944 <__NVIC_EnableIRQ>
        NVIC_SetPriority(USART2_IRQn, 1);
 8001c64:	2101      	movs	r1, #1
 8001c66:	2026      	movs	r0, #38	@ 0x26
 8001c68:	f7ff fe8a 	bl	8001980 <__NVIC_SetPriority>
}
 8001c6c:	bf00      	nop
 8001c6e:	3718      	adds	r7, #24
 8001c70:	46bd      	mov	sp, r7
 8001c72:	bd80      	pop	{r7, pc}
 8001c74:	40011000 	.word	0x40011000
 8001c78:	40023800 	.word	0x40023800
 8001c7c:	40004400 	.word	0x40004400
 8001c80:	cccccccd 	.word	0xcccccccd

08001c84 <UART_Transmit_Byte>:
 * @brief Transmit one byte (blocking) with timeout.
 * @param uart  Handle
 * @param data  Byte to send
 */
void UART_Transmit_Byte(UART_Handle_t *uart, char data)
{
 8001c84:	b480      	push	{r7}
 8001c86:	b085      	sub	sp, #20
 8001c88:	af00      	add	r7, sp, #0
 8001c8a:	6078      	str	r0, [r7, #4]
 8001c8c:	460b      	mov	r3, r1
 8001c8e:	70fb      	strb	r3, [r7, #3]
    uint32_t timeout = USART_TIMEOUT;
 8001c90:	4b16      	ldr	r3, [pc, #88]	@ (8001cec <UART_Transmit_Byte+0x68>)
 8001c92:	60fb      	str	r3, [r7, #12]
    while (!(uart->port->SR & USART_SR_TXE)) {
 8001c94:	e005      	b.n	8001ca2 <UART_Transmit_Byte+0x1e>
        if (--timeout == 0) return; // timeout
 8001c96:	68fb      	ldr	r3, [r7, #12]
 8001c98:	3b01      	subs	r3, #1
 8001c9a:	60fb      	str	r3, [r7, #12]
 8001c9c:	68fb      	ldr	r3, [r7, #12]
 8001c9e:	2b00      	cmp	r3, #0
 8001ca0:	d01b      	beq.n	8001cda <UART_Transmit_Byte+0x56>
    while (!(uart->port->SR & USART_SR_TXE)) {
 8001ca2:	687b      	ldr	r3, [r7, #4]
 8001ca4:	681b      	ldr	r3, [r3, #0]
 8001ca6:	681b      	ldr	r3, [r3, #0]
 8001ca8:	f003 0380 	and.w	r3, r3, #128	@ 0x80
 8001cac:	2b00      	cmp	r3, #0
 8001cae:	d0f2      	beq.n	8001c96 <UART_Transmit_Byte+0x12>
    }
    uart->port->DR = data;
 8001cb0:	687b      	ldr	r3, [r7, #4]
 8001cb2:	681b      	ldr	r3, [r3, #0]
 8001cb4:	78fa      	ldrb	r2, [r7, #3]
 8001cb6:	605a      	str	r2, [r3, #4]

    timeout = USART_TIMEOUT;
 8001cb8:	4b0c      	ldr	r3, [pc, #48]	@ (8001cec <UART_Transmit_Byte+0x68>)
 8001cba:	60fb      	str	r3, [r7, #12]
    while (!(uart->port->SR & USART_SR_TC)) {
 8001cbc:	e005      	b.n	8001cca <UART_Transmit_Byte+0x46>
        if (--timeout == 0) return;
 8001cbe:	68fb      	ldr	r3, [r7, #12]
 8001cc0:	3b01      	subs	r3, #1
 8001cc2:	60fb      	str	r3, [r7, #12]
 8001cc4:	68fb      	ldr	r3, [r7, #12]
 8001cc6:	2b00      	cmp	r3, #0
 8001cc8:	d009      	beq.n	8001cde <UART_Transmit_Byte+0x5a>
    while (!(uart->port->SR & USART_SR_TC)) {
 8001cca:	687b      	ldr	r3, [r7, #4]
 8001ccc:	681b      	ldr	r3, [r3, #0]
 8001cce:	681b      	ldr	r3, [r3, #0]
 8001cd0:	f003 0340 	and.w	r3, r3, #64	@ 0x40
 8001cd4:	2b00      	cmp	r3, #0
 8001cd6:	d0f2      	beq.n	8001cbe <UART_Transmit_Byte+0x3a>
 8001cd8:	e002      	b.n	8001ce0 <UART_Transmit_Byte+0x5c>
        if (--timeout == 0) return; // timeout
 8001cda:	bf00      	nop
 8001cdc:	e000      	b.n	8001ce0 <UART_Transmit_Byte+0x5c>
        if (--timeout == 0) return;
 8001cde:	bf00      	nop
    }
}
 8001ce0:	3714      	adds	r7, #20
 8001ce2:	46bd      	mov	sp, r7
 8001ce4:	f85d 7b04 	ldr.w	r7, [sp], #4
 8001ce8:	4770      	bx	lr
 8001cea:	bf00      	nop
 8001cec:	000186a0 	.word	0x000186a0

08001cf0 <UART_Transmit_Buffer>:

/**
 * @brief Transmit a null-terminated string.
 */
void UART_Transmit_Buffer(UART_Handle_t *uart, const char *data)
{
 8001cf0:	b580      	push	{r7, lr}
 8001cf2:	b082      	sub	sp, #8
 8001cf4:	af00      	add	r7, sp, #0
 8001cf6:	6078      	str	r0, [r7, #4]
 8001cf8:	6039      	str	r1, [r7, #0]
    while (*data) {
 8001cfa:	e007      	b.n	8001d0c <UART_Transmit_Buffer+0x1c>
        UART_Transmit_Byte(uart, *data++);
 8001cfc:	683b      	ldr	r3, [r7, #0]
 8001cfe:	1c5a      	adds	r2, r3, #1
 8001d00:	603a      	str	r2, [r7, #0]
 8001d02:	781b      	ldrb	r3, [r3, #0]
 8001d04:	4619      	mov	r1, r3
 8001d06:	6878      	ldr	r0, [r7, #4]
 8001d08:	f7ff ffbc 	bl	8001c84 <UART_Transmit_Byte>
    while (*data) {
 8001d0c:	683b      	ldr	r3, [r7, #0]
 8001d0e:	781b      	ldrb	r3, [r3, #0]
 8001d10:	2b00      	cmp	r3, #0
 8001d12:	d1f3      	bne.n	8001cfc <UART_Transmit_Buffer+0xc>
    }
}
 8001d14:	bf00      	nop
 8001d16:	bf00      	nop
 8001d18:	3708      	adds	r7, #8
 8001d1a:	46bd      	mov	sp, r7
 8001d1c:	bd80      	pop	{r7, pc}
	...

08001d20 <UART_Receive_Byte>:
/**
 * @brief Receive one byte (blocking) using interrupt-driven global buffer.
 * @return Received byte
 */
char UART_Receive_Byte(UART_Handle_t *uart)
{
 8001d20:	b480      	push	{r7}
 8001d22:	b085      	sub	sp, #20
 8001d24:	af00      	add	r7, sp, #0
 8001d26:	6078      	str	r0, [r7, #4]
    volatile uint8_t *ready_flag;
    volatile uint8_t *buffer;
    if (uart->port == USART1) {
 8001d28:	687b      	ldr	r3, [r7, #4]
 8001d2a:	681b      	ldr	r3, [r3, #0]
 8001d2c:	4a0e      	ldr	r2, [pc, #56]	@ (8001d68 <UART_Receive_Byte+0x48>)
 8001d2e:	4293      	cmp	r3, r2
 8001d30:	d104      	bne.n	8001d3c <UART_Receive_Byte+0x1c>
        ready_flag = &uart1RxReady;
 8001d32:	4b0e      	ldr	r3, [pc, #56]	@ (8001d6c <UART_Receive_Byte+0x4c>)
 8001d34:	60fb      	str	r3, [r7, #12]
        buffer = &uart1RxBuffer;
 8001d36:	4b0e      	ldr	r3, [pc, #56]	@ (8001d70 <UART_Receive_Byte+0x50>)
 8001d38:	60bb      	str	r3, [r7, #8]
 8001d3a:	e003      	b.n	8001d44 <UART_Receive_Byte+0x24>
    } else {
        ready_flag = &uart2RxReady;
 8001d3c:	4b0d      	ldr	r3, [pc, #52]	@ (8001d74 <UART_Receive_Byte+0x54>)
 8001d3e:	60fb      	str	r3, [r7, #12]
        buffer = &uart2RxBuffer;
 8001d40:	4b0d      	ldr	r3, [pc, #52]	@ (8001d78 <UART_Receive_Byte+0x58>)
 8001d42:	60bb      	str	r3, [r7, #8]
    }

    while (!(*ready_flag));
 8001d44:	bf00      	nop
 8001d46:	68fb      	ldr	r3, [r7, #12]
 8001d48:	781b      	ldrb	r3, [r3, #0]
 8001d4a:	b2db      	uxtb	r3, r3
 8001d4c:	2b00      	cmp	r3, #0
 8001d4e:	d0fa      	beq.n	8001d46 <UART_Receive_Byte+0x26>
    *ready_flag = 0;
 8001d50:	68fb      	ldr	r3, [r7, #12]
 8001d52:	2200      	movs	r2, #0
 8001d54:	701a      	strb	r2, [r3, #0]
    return (char)(*buffer);
 8001d56:	68bb      	ldr	r3, [r7, #8]
 8001d58:	781b      	ldrb	r3, [r3, #0]
 8001d5a:	b2db      	uxtb	r3, r3
}
 8001d5c:	4618      	mov	r0, r3
 8001d5e:	3714      	adds	r7, #20
 8001d60:	46bd      	mov	sp, r7
 8001d62:	f85d 7b04 	ldr.w	r7, [sp], #4
 8001d66:	4770      	bx	lr
 8001d68:	40011000 	.word	0x40011000
 8001d6c:	20000959 	.word	0x20000959
 8001d70:	20000958 	.word	0x20000958
 8001d74:	2000095b 	.word	0x2000095b
 8001d78:	2000095a 	.word	0x2000095a

08001d7c <UART_Available>:
/**
 * @brief Check if data is available in the RX buffer.
 * @return 1 if available, 0 otherwise
 */
uint8_t UART_Available(UART_Handle_t *uart)
{
 8001d7c:	b480      	push	{r7}
 8001d7e:	b083      	sub	sp, #12
 8001d80:	af00      	add	r7, sp, #0
 8001d82:	6078      	str	r0, [r7, #4]
    if (uart->port == USART1)
 8001d84:	687b      	ldr	r3, [r7, #4]
 8001d86:	681b      	ldr	r3, [r3, #0]
 8001d88:	4a07      	ldr	r2, [pc, #28]	@ (8001da8 <UART_Available+0x2c>)
 8001d8a:	4293      	cmp	r3, r2
 8001d8c:	d103      	bne.n	8001d96 <UART_Available+0x1a>
        return uart1RxReady;
 8001d8e:	4b07      	ldr	r3, [pc, #28]	@ (8001dac <UART_Available+0x30>)
 8001d90:	781b      	ldrb	r3, [r3, #0]
 8001d92:	b2db      	uxtb	r3, r3
 8001d94:	e002      	b.n	8001d9c <UART_Available+0x20>
    else
        return uart2RxReady;
 8001d96:	4b06      	ldr	r3, [pc, #24]	@ (8001db0 <UART_Available+0x34>)
 8001d98:	781b      	ldrb	r3, [r3, #0]
 8001d9a:	b2db      	uxtb	r3, r3
}
 8001d9c:	4618      	mov	r0, r3
 8001d9e:	370c      	adds	r7, #12
 8001da0:	46bd      	mov	sp, r7
 8001da2:	f85d 7b04 	ldr.w	r7, [sp], #4
 8001da6:	4770      	bx	lr
 8001da8:	40011000 	.word	0x40011000
 8001dac:	20000959 	.word	0x20000959
 8001db0:	2000095b 	.word	0x2000095b

08001db4 <USART1_IRQHandler>:

/* Interrupt handlers – clear RXNE and store data */
void USART1_IRQHandler(void)
{
 8001db4:	b480      	push	{r7}
 8001db6:	af00      	add	r7, sp, #0
    if (USART1->SR & USART_SR_RXNE) {
 8001db8:	4b09      	ldr	r3, [pc, #36]	@ (8001de0 <USART1_IRQHandler+0x2c>)
 8001dba:	681b      	ldr	r3, [r3, #0]
 8001dbc:	f003 0320 	and.w	r3, r3, #32
 8001dc0:	2b00      	cmp	r3, #0
 8001dc2:	d007      	beq.n	8001dd4 <USART1_IRQHandler+0x20>
        uart1RxBuffer = (uint8_t)(USART1->DR & 0xFF);
 8001dc4:	4b06      	ldr	r3, [pc, #24]	@ (8001de0 <USART1_IRQHandler+0x2c>)
 8001dc6:	685b      	ldr	r3, [r3, #4]
 8001dc8:	b2da      	uxtb	r2, r3
 8001dca:	4b06      	ldr	r3, [pc, #24]	@ (8001de4 <USART1_IRQHandler+0x30>)
 8001dcc:	701a      	strb	r2, [r3, #0]
        uart1RxReady = 1;
 8001dce:	4b06      	ldr	r3, [pc, #24]	@ (8001de8 <USART1_IRQHandler+0x34>)
 8001dd0:	2201      	movs	r2, #1
 8001dd2:	701a      	strb	r2, [r3, #0]
    }
}
 8001dd4:	bf00      	nop
 8001dd6:	46bd      	mov	sp, r7
 8001dd8:	f85d 7b04 	ldr.w	r7, [sp], #4
 8001ddc:	4770      	bx	lr
 8001dde:	bf00      	nop
 8001de0:	40011000 	.word	0x40011000
 8001de4:	20000958 	.word	0x20000958
 8001de8:	20000959 	.word	0x20000959

08001dec <USART2_IRQHandler>:

void USART2_IRQHandler(void)
{
 8001dec:	b480      	push	{r7}
 8001dee:	af00      	add	r7, sp, #0
    if (USART2->SR & USART_SR_RXNE) {
 8001df0:	4b09      	ldr	r3, [pc, #36]	@ (8001e18 <USART2_IRQHandler+0x2c>)
 8001df2:	681b      	ldr	r3, [r3, #0]
 8001df4:	f003 0320 	and.w	r3, r3, #32
 8001df8:	2b00      	cmp	r3, #0
 8001dfa:	d007      	beq.n	8001e0c <USART2_IRQHandler+0x20>
        uart2RxBuffer = (uint8_t)(USART2->DR & 0xFF);
 8001dfc:	4b06      	ldr	r3, [pc, #24]	@ (8001e18 <USART2_IRQHandler+0x2c>)
 8001dfe:	685b      	ldr	r3, [r3, #4]
 8001e00:	b2da      	uxtb	r2, r3
 8001e02:	4b06      	ldr	r3, [pc, #24]	@ (8001e1c <USART2_IRQHandler+0x30>)
 8001e04:	701a      	strb	r2, [r3, #0]
        uart2RxReady = 1;
 8001e06:	4b06      	ldr	r3, [pc, #24]	@ (8001e20 <USART2_IRQHandler+0x34>)
 8001e08:	2201      	movs	r2, #1
 8001e0a:	701a      	strb	r2, [r3, #0]
    }
}
 8001e0c:	bf00      	nop
 8001e0e:	46bd      	mov	sp, r7
 8001e10:	f85d 7b04 	ldr.w	r7, [sp], #4
 8001e14:	4770      	bx	lr
 8001e16:	bf00      	nop
 8001e18:	40004400 	.word	0x40004400
 8001e1c:	2000095a 	.word	0x2000095a
 8001e20:	2000095b 	.word	0x2000095b

08001e24 <Control_Init>:
extern float lux_f;
extern uint16_t soilMoisture;
extern UART_Handle_t ESP32_UART;

void Control_Init(void)
{
 8001e24:	b580      	push	{r7, lr}
 8001e26:	af00      	add	r7, sp, #0
    currentMode = MODE_AUTO;
 8001e28:	4b06      	ldr	r3, [pc, #24]	@ (8001e44 <Control_Init+0x20>)
 8001e2a:	2200      	movs	r2, #0
 8001e2c:	701a      	strb	r2, [r3, #0]
    Relay_SetPump(0);
 8001e2e:	2000      	movs	r0, #0
 8001e30:	f000 fa1c 	bl	800226c <Relay_SetPump>
    Relay_SetMist(0);
 8001e34:	2000      	movs	r0, #0
 8001e36:	f000 fa43 	bl	80022c0 <Relay_SetMist>
    lastAutoCheck = 0;
 8001e3a:	4b03      	ldr	r3, [pc, #12]	@ (8001e48 <Control_Init+0x24>)
 8001e3c:	2200      	movs	r2, #0
 8001e3e:	601a      	str	r2, [r3, #0]
}
 8001e40:	bf00      	nop
 8001e42:	bd80      	pop	{r7, pc}
 8001e44:	2000095c 	.word	0x2000095c
 8001e48:	20000960 	.word	0x20000960

08001e4c <Control_SetMode>:

void Control_SetMode(ControlMode mode)
{
 8001e4c:	b580      	push	{r7, lr}
 8001e4e:	b082      	sub	sp, #8
 8001e50:	af00      	add	r7, sp, #0
 8001e52:	4603      	mov	r3, r0
 8001e54:	71fb      	strb	r3, [r7, #7]
    currentMode = mode;
 8001e56:	4a0a      	ldr	r2, [pc, #40]	@ (8001e80 <Control_SetMode+0x34>)
 8001e58:	79fb      	ldrb	r3, [r7, #7]
 8001e5a:	7013      	strb	r3, [r2, #0]
    // Notification current Mode across UART
    if(currentMode == MODE_AUTO)
 8001e5c:	4b08      	ldr	r3, [pc, #32]	@ (8001e80 <Control_SetMode+0x34>)
 8001e5e:	781b      	ldrb	r3, [r3, #0]
 8001e60:	2b00      	cmp	r3, #0
 8001e62:	d104      	bne.n	8001e6e <Control_SetMode+0x22>
    	UART_Transmit_Buffer(&ESP32_UART, "MODE_AUTO\r\n");
 8001e64:	4907      	ldr	r1, [pc, #28]	@ (8001e84 <Control_SetMode+0x38>)
 8001e66:	4808      	ldr	r0, [pc, #32]	@ (8001e88 <Control_SetMode+0x3c>)
 8001e68:	f7ff ff42 	bl	8001cf0 <UART_Transmit_Buffer>
    else
    	UART_Transmit_Buffer(&ESP32_UART, "MODE_MANUAL\r\n");
}
 8001e6c:	e003      	b.n	8001e76 <Control_SetMode+0x2a>
    	UART_Transmit_Buffer(&ESP32_UART, "MODE_MANUAL\r\n");
 8001e6e:	4907      	ldr	r1, [pc, #28]	@ (8001e8c <Control_SetMode+0x40>)
 8001e70:	4805      	ldr	r0, [pc, #20]	@ (8001e88 <Control_SetMode+0x3c>)
 8001e72:	f7ff ff3d 	bl	8001cf0 <UART_Transmit_Buffer>
}
 8001e76:	bf00      	nop
 8001e78:	3708      	adds	r7, #8
 8001e7a:	46bd      	mov	sp, r7
 8001e7c:	bd80      	pop	{r7, pc}
 8001e7e:	bf00      	nop
 8001e80:	2000095c 	.word	0x2000095c
 8001e84:	08003108 	.word	0x08003108
 8001e88:	2000000c 	.word	0x2000000c
 8001e8c:	08003114 	.word	0x08003114

08001e90 <Control_AutoUpdate>:
{
    return currentMode;
}

void Control_AutoUpdate(void)
{
 8001e90:	b580      	push	{r7, lr}
 8001e92:	af00      	add	r7, sp, #0
    static uint8_t pumpReq = 0, mistReq = 0;
    //uint32_t now = 0; // You can use SysTick count or millis()

    // Update pump status based on soil moisture
    if(soilMoisture < SOIL_DRY_THRESHOLD)
 8001e94:	4b22      	ldr	r3, [pc, #136]	@ (8001f20 <Control_AutoUpdate+0x90>)
 8001e96:	881b      	ldrh	r3, [r3, #0]
 8001e98:	2b27      	cmp	r3, #39	@ 0x27
 8001e9a:	d80a      	bhi.n	8001eb2 <Control_AutoUpdate+0x22>
    {
        if(pumpReq == 0)
 8001e9c:	4b21      	ldr	r3, [pc, #132]	@ (8001f24 <Control_AutoUpdate+0x94>)
 8001e9e:	781b      	ldrb	r3, [r3, #0]
 8001ea0:	2b00      	cmp	r3, #0
 8001ea2:	d102      	bne.n	8001eaa <Control_AutoUpdate+0x1a>
            pumpReq = 1;
 8001ea4:	4b1f      	ldr	r3, [pc, #124]	@ (8001f24 <Control_AutoUpdate+0x94>)
 8001ea6:	2201      	movs	r2, #1
 8001ea8:	701a      	strb	r2, [r3, #0]
        pumpHysteresisTimer = 0;
 8001eaa:	4b1f      	ldr	r3, [pc, #124]	@ (8001f28 <Control_AutoUpdate+0x98>)
 8001eac:	2200      	movs	r2, #0
 8001eae:	601a      	str	r2, [r3, #0]
 8001eb0:	e00d      	b.n	8001ece <Control_AutoUpdate+0x3e>
    }
    else if(soilMoisture > SOIL_WET_THRESHOLD)
 8001eb2:	4b1b      	ldr	r3, [pc, #108]	@ (8001f20 <Control_AutoUpdate+0x90>)
 8001eb4:	881b      	ldrh	r3, [r3, #0]
 8001eb6:	2b46      	cmp	r3, #70	@ 0x46
 8001eb8:	d909      	bls.n	8001ece <Control_AutoUpdate+0x3e>
    {
        if(pumpReq == 1)
 8001eba:	4b1a      	ldr	r3, [pc, #104]	@ (8001f24 <Control_AutoUpdate+0x94>)
 8001ebc:	781b      	ldrb	r3, [r3, #0]
 8001ebe:	2b01      	cmp	r3, #1
 8001ec0:	d102      	bne.n	8001ec8 <Control_AutoUpdate+0x38>
            pumpReq = 0;
 8001ec2:	4b18      	ldr	r3, [pc, #96]	@ (8001f24 <Control_AutoUpdate+0x94>)
 8001ec4:	2200      	movs	r2, #0
 8001ec6:	701a      	strb	r2, [r3, #0]
        pumpHysteresisTimer = 0;
 8001ec8:	4b17      	ldr	r3, [pc, #92]	@ (8001f28 <Control_AutoUpdate+0x98>)
 8001eca:	2200      	movs	r2, #0
 8001ecc:	601a      	str	r2, [r3, #0]
    {
    	// Keep it as is; you can increase the timer if you want time hysteresis.
    }

    // Update mist status based on air humidity.
    if(dht11.humidity < AIR_DRY_THRESHOLD)
 8001ece:	4b17      	ldr	r3, [pc, #92]	@ (8001f2c <Control_AutoUpdate+0x9c>)
 8001ed0:	781b      	ldrb	r3, [r3, #0]
 8001ed2:	2b31      	cmp	r3, #49	@ 0x31
 8001ed4:	d80a      	bhi.n	8001eec <Control_AutoUpdate+0x5c>
    {
        if(mistReq == 0)
 8001ed6:	4b16      	ldr	r3, [pc, #88]	@ (8001f30 <Control_AutoUpdate+0xa0>)
 8001ed8:	781b      	ldrb	r3, [r3, #0]
 8001eda:	2b00      	cmp	r3, #0
 8001edc:	d102      	bne.n	8001ee4 <Control_AutoUpdate+0x54>
            mistReq = 1;
 8001ede:	4b14      	ldr	r3, [pc, #80]	@ (8001f30 <Control_AutoUpdate+0xa0>)
 8001ee0:	2201      	movs	r2, #1
 8001ee2:	701a      	strb	r2, [r3, #0]
        mistHysteresisTimer = 0;
 8001ee4:	4b13      	ldr	r3, [pc, #76]	@ (8001f34 <Control_AutoUpdate+0xa4>)
 8001ee6:	2200      	movs	r2, #0
 8001ee8:	601a      	str	r2, [r3, #0]
 8001eea:	e00d      	b.n	8001f08 <Control_AutoUpdate+0x78>
    }
    else if(dht11.humidity > AIR_WET_THRESHOLD)
 8001eec:	4b0f      	ldr	r3, [pc, #60]	@ (8001f2c <Control_AutoUpdate+0x9c>)
 8001eee:	781b      	ldrb	r3, [r3, #0]
 8001ef0:	2b46      	cmp	r3, #70	@ 0x46
 8001ef2:	d909      	bls.n	8001f08 <Control_AutoUpdate+0x78>
    {
        if(mistReq == 1)
 8001ef4:	4b0e      	ldr	r3, [pc, #56]	@ (8001f30 <Control_AutoUpdate+0xa0>)
 8001ef6:	781b      	ldrb	r3, [r3, #0]
 8001ef8:	2b01      	cmp	r3, #1
 8001efa:	d102      	bne.n	8001f02 <Control_AutoUpdate+0x72>
            mistReq = 0;
 8001efc:	4b0c      	ldr	r3, [pc, #48]	@ (8001f30 <Control_AutoUpdate+0xa0>)
 8001efe:	2200      	movs	r2, #0
 8001f00:	701a      	strb	r2, [r3, #0]
        mistHysteresisTimer = 0;
 8001f02:	4b0c      	ldr	r3, [pc, #48]	@ (8001f34 <Control_AutoUpdate+0xa4>)
 8001f04:	2200      	movs	r2, #0
 8001f06:	601a      	str	r2, [r3, #0]
    }

    Relay_SetPump(pumpReq);
 8001f08:	4b06      	ldr	r3, [pc, #24]	@ (8001f24 <Control_AutoUpdate+0x94>)
 8001f0a:	781b      	ldrb	r3, [r3, #0]
 8001f0c:	4618      	mov	r0, r3
 8001f0e:	f000 f9ad 	bl	800226c <Relay_SetPump>
    Relay_SetMist(mistReq);
 8001f12:	4b07      	ldr	r3, [pc, #28]	@ (8001f30 <Control_AutoUpdate+0xa0>)
 8001f14:	781b      	ldrb	r3, [r3, #0]
 8001f16:	4618      	mov	r0, r3
 8001f18:	f000 f9d2 	bl	80022c0 <Relay_SetMist>
}
 8001f1c:	bf00      	nop
 8001f1e:	bd80      	pop	{r7, pc}
 8001f20:	20000988 	.word	0x20000988
 8001f24:	2000096c 	.word	0x2000096c
 8001f28:	20000964 	.word	0x20000964
 8001f2c:	20000980 	.word	0x20000980
 8001f30:	2000096d 	.word	0x2000096d
 8001f34:	20000968 	.word	0x20000968

08001f38 <Control_ProcessCommand>:

void Control_ProcessCommand(char* cmd)
{
 8001f38:	b580      	push	{r7, lr}
 8001f3a:	b082      	sub	sp, #8
 8001f3c:	af00      	add	r7, sp, #0
 8001f3e:	6078      	str	r0, [r7, #4]
	// Process commands from ESP32
	// Format: "PUMP_ON", "PUMP_OFF", "MIST_ON", "MIST_OFF", "AUTO_ENABLE", "AUTO_DISABLE"
    if(strcmp(cmd, "PUMP_ON") == 0)
 8001f40:	4938      	ldr	r1, [pc, #224]	@ (8002024 <Control_ProcessCommand+0xec>)
 8001f42:	6878      	ldr	r0, [r7, #4]
 8001f44:	f7fe f94c 	bl	80001e0 <strcmp>
 8001f48:	4603      	mov	r3, r0
 8001f4a:	2b00      	cmp	r3, #0
 8001f4c:	d10b      	bne.n	8001f66 <Control_ProcessCommand+0x2e>
    {
        if(currentMode == MODE_MANUAL)
 8001f4e:	4b36      	ldr	r3, [pc, #216]	@ (8002028 <Control_ProcessCommand+0xf0>)
 8001f50:	781b      	ldrb	r3, [r3, #0]
 8001f52:	2b01      	cmp	r3, #1
 8001f54:	d102      	bne.n	8001f5c <Control_ProcessCommand+0x24>
            Relay_SetPump(1);
 8001f56:	2001      	movs	r0, #1
 8001f58:	f000 f988 	bl	800226c <Relay_SetPump>
        UART_Transmit_Buffer(&ESP32_UART, "ACK:PUMP_ON\r\n");
 8001f5c:	4933      	ldr	r1, [pc, #204]	@ (800202c <Control_ProcessCommand+0xf4>)
 8001f5e:	4834      	ldr	r0, [pc, #208]	@ (8002030 <Control_ProcessCommand+0xf8>)
 8001f60:	f7ff fec6 	bl	8001cf0 <UART_Transmit_Buffer>
    }
    else
    {
        UART_Transmit_Buffer(&ESP32_UART, "ACK:UNKNOWN\r\n");
    }
}
 8001f64:	e05a      	b.n	800201c <Control_ProcessCommand+0xe4>
    else if(strcmp(cmd, "PUMP_OFF") == 0)
 8001f66:	4933      	ldr	r1, [pc, #204]	@ (8002034 <Control_ProcessCommand+0xfc>)
 8001f68:	6878      	ldr	r0, [r7, #4]
 8001f6a:	f7fe f939 	bl	80001e0 <strcmp>
 8001f6e:	4603      	mov	r3, r0
 8001f70:	2b00      	cmp	r3, #0
 8001f72:	d10b      	bne.n	8001f8c <Control_ProcessCommand+0x54>
        if(currentMode == MODE_MANUAL)
 8001f74:	4b2c      	ldr	r3, [pc, #176]	@ (8002028 <Control_ProcessCommand+0xf0>)
 8001f76:	781b      	ldrb	r3, [r3, #0]
 8001f78:	2b01      	cmp	r3, #1
 8001f7a:	d102      	bne.n	8001f82 <Control_ProcessCommand+0x4a>
            Relay_SetPump(0);
 8001f7c:	2000      	movs	r0, #0
 8001f7e:	f000 f975 	bl	800226c <Relay_SetPump>
        UART_Transmit_Buffer(&ESP32_UART, "ACK:PUMP_OFF\r\n");
 8001f82:	492d      	ldr	r1, [pc, #180]	@ (8002038 <Control_ProcessCommand+0x100>)
 8001f84:	482a      	ldr	r0, [pc, #168]	@ (8002030 <Control_ProcessCommand+0xf8>)
 8001f86:	f7ff feb3 	bl	8001cf0 <UART_Transmit_Buffer>
}
 8001f8a:	e047      	b.n	800201c <Control_ProcessCommand+0xe4>
    else if(strcmp(cmd, "MIST_ON") == 0)
 8001f8c:	492b      	ldr	r1, [pc, #172]	@ (800203c <Control_ProcessCommand+0x104>)
 8001f8e:	6878      	ldr	r0, [r7, #4]
 8001f90:	f7fe f926 	bl	80001e0 <strcmp>
 8001f94:	4603      	mov	r3, r0
 8001f96:	2b00      	cmp	r3, #0
 8001f98:	d10b      	bne.n	8001fb2 <Control_ProcessCommand+0x7a>
        if(currentMode == MODE_MANUAL)
 8001f9a:	4b23      	ldr	r3, [pc, #140]	@ (8002028 <Control_ProcessCommand+0xf0>)
 8001f9c:	781b      	ldrb	r3, [r3, #0]
 8001f9e:	2b01      	cmp	r3, #1
 8001fa0:	d102      	bne.n	8001fa8 <Control_ProcessCommand+0x70>
            Relay_SetMist(1);
 8001fa2:	2001      	movs	r0, #1
 8001fa4:	f000 f98c 	bl	80022c0 <Relay_SetMist>
        UART_Transmit_Buffer(&ESP32_UART, "ACK:MIST_ON\r\n");
 8001fa8:	4925      	ldr	r1, [pc, #148]	@ (8002040 <Control_ProcessCommand+0x108>)
 8001faa:	4821      	ldr	r0, [pc, #132]	@ (8002030 <Control_ProcessCommand+0xf8>)
 8001fac:	f7ff fea0 	bl	8001cf0 <UART_Transmit_Buffer>
}
 8001fb0:	e034      	b.n	800201c <Control_ProcessCommand+0xe4>
    else if(strcmp(cmd, "MIST_OFF") == 0)
 8001fb2:	4924      	ldr	r1, [pc, #144]	@ (8002044 <Control_ProcessCommand+0x10c>)
 8001fb4:	6878      	ldr	r0, [r7, #4]
 8001fb6:	f7fe f913 	bl	80001e0 <strcmp>
 8001fba:	4603      	mov	r3, r0
 8001fbc:	2b00      	cmp	r3, #0
 8001fbe:	d10b      	bne.n	8001fd8 <Control_ProcessCommand+0xa0>
        if(currentMode == MODE_MANUAL)
 8001fc0:	4b19      	ldr	r3, [pc, #100]	@ (8002028 <Control_ProcessCommand+0xf0>)
 8001fc2:	781b      	ldrb	r3, [r3, #0]
 8001fc4:	2b01      	cmp	r3, #1
 8001fc6:	d102      	bne.n	8001fce <Control_ProcessCommand+0x96>
            Relay_SetMist(0);
 8001fc8:	2000      	movs	r0, #0
 8001fca:	f000 f979 	bl	80022c0 <Relay_SetMist>
        UART_Transmit_Buffer(&ESP32_UART, "ACK:MIST_OFF\r\n");
 8001fce:	491e      	ldr	r1, [pc, #120]	@ (8002048 <Control_ProcessCommand+0x110>)
 8001fd0:	4817      	ldr	r0, [pc, #92]	@ (8002030 <Control_ProcessCommand+0xf8>)
 8001fd2:	f7ff fe8d 	bl	8001cf0 <UART_Transmit_Buffer>
}
 8001fd6:	e021      	b.n	800201c <Control_ProcessCommand+0xe4>
    else if(strcmp(cmd, "AUTO_ENABLE") == 0)
 8001fd8:	491c      	ldr	r1, [pc, #112]	@ (800204c <Control_ProcessCommand+0x114>)
 8001fda:	6878      	ldr	r0, [r7, #4]
 8001fdc:	f7fe f900 	bl	80001e0 <strcmp>
 8001fe0:	4603      	mov	r3, r0
 8001fe2:	2b00      	cmp	r3, #0
 8001fe4:	d107      	bne.n	8001ff6 <Control_ProcessCommand+0xbe>
        Control_SetMode(MODE_AUTO);
 8001fe6:	2000      	movs	r0, #0
 8001fe8:	f7ff ff30 	bl	8001e4c <Control_SetMode>
        UART_Transmit_Buffer(&ESP32_UART, "ACK:AUTO_ENABLE\r\n");
 8001fec:	4918      	ldr	r1, [pc, #96]	@ (8002050 <Control_ProcessCommand+0x118>)
 8001fee:	4810      	ldr	r0, [pc, #64]	@ (8002030 <Control_ProcessCommand+0xf8>)
 8001ff0:	f7ff fe7e 	bl	8001cf0 <UART_Transmit_Buffer>
}
 8001ff4:	e012      	b.n	800201c <Control_ProcessCommand+0xe4>
    else if(strcmp(cmd, "AUTO_DISABLE") == 0)
 8001ff6:	4917      	ldr	r1, [pc, #92]	@ (8002054 <Control_ProcessCommand+0x11c>)
 8001ff8:	6878      	ldr	r0, [r7, #4]
 8001ffa:	f7fe f8f1 	bl	80001e0 <strcmp>
 8001ffe:	4603      	mov	r3, r0
 8002000:	2b00      	cmp	r3, #0
 8002002:	d107      	bne.n	8002014 <Control_ProcessCommand+0xdc>
        Control_SetMode(MODE_MANUAL);
 8002004:	2001      	movs	r0, #1
 8002006:	f7ff ff21 	bl	8001e4c <Control_SetMode>
        UART_Transmit_Buffer(&ESP32_UART, "ACK:AUTO_DISABLE\r\n");
 800200a:	4913      	ldr	r1, [pc, #76]	@ (8002058 <Control_ProcessCommand+0x120>)
 800200c:	4808      	ldr	r0, [pc, #32]	@ (8002030 <Control_ProcessCommand+0xf8>)
 800200e:	f7ff fe6f 	bl	8001cf0 <UART_Transmit_Buffer>
}
 8002012:	e003      	b.n	800201c <Control_ProcessCommand+0xe4>
        UART_Transmit_Buffer(&ESP32_UART, "ACK:UNKNOWN\r\n");
 8002014:	4911      	ldr	r1, [pc, #68]	@ (800205c <Control_ProcessCommand+0x124>)
 8002016:	4806      	ldr	r0, [pc, #24]	@ (8002030 <Control_ProcessCommand+0xf8>)
 8002018:	f7ff fe6a 	bl	8001cf0 <UART_Transmit_Buffer>
}
 800201c:	bf00      	nop
 800201e:	3708      	adds	r7, #8
 8002020:	46bd      	mov	sp, r7
 8002022:	bd80      	pop	{r7, pc}
 8002024:	08003124 	.word	0x08003124
 8002028:	2000095c 	.word	0x2000095c
 800202c:	0800312c 	.word	0x0800312c
 8002030:	2000000c 	.word	0x2000000c
 8002034:	0800313c 	.word	0x0800313c
 8002038:	08003148 	.word	0x08003148
 800203c:	08003158 	.word	0x08003158
 8002040:	08003160 	.word	0x08003160
 8002044:	08003170 	.word	0x08003170
 8002048:	0800317c 	.word	0x0800317c
 800204c:	0800318c 	.word	0x0800318c
 8002050:	08003198 	.word	0x08003198
 8002054:	080031ac 	.word	0x080031ac
 8002058:	080031bc 	.word	0x080031bc
 800205c:	080031d0 	.word	0x080031d0

08002060 <Control_Process>:

void Control_Process(void)
{
 8002060:	b590      	push	{r4, r7, lr}
 8002062:	b08b      	sub	sp, #44	@ 0x2c
 8002064:	af00      	add	r7, sp, #0
    static uint32_t lastRun = 0;
    uint32_t now = DWT_millis(); // millis()
 8002066:	f000 f89d 	bl	80021a4 <DWT_millis>
 800206a:	6238      	str	r0, [r7, #32]

    // Checking commands from UART
    if(UART_Available(&ESP32_UART))
 800206c:	4837      	ldr	r0, [pc, #220]	@ (800214c <Control_Process+0xec>)
 800206e:	f7ff fe85 	bl	8001d7c <UART_Available>
 8002072:	4603      	mov	r3, r0
 8002074:	2b00      	cmp	r3, #0
 8002076:	d055      	beq.n	8002124 <Control_Process+0xc4>
    {
        char cmd[32];
        uint8_t idx = 0;
 8002078:	2300      	movs	r3, #0
 800207a:	f887 3027 	strb.w	r3, [r7, #39]	@ 0x27
        memset(cmd, 0, 32);
 800207e:	463b      	mov	r3, r7
 8002080:	2220      	movs	r2, #32
 8002082:	2100      	movs	r1, #0
 8002084:	4618      	mov	r0, r3
 8002086:	f000 fbad 	bl	80027e4 <memset>
        while(UART_Available(&ESP32_UART) && idx < 31)
 800208a:	e00f      	b.n	80020ac <Control_Process+0x4c>
        {
            cmd[idx++] = UART_Receive_Byte(&ESP32_UART);
 800208c:	f897 3027 	ldrb.w	r3, [r7, #39]	@ 0x27
 8002090:	1c5a      	adds	r2, r3, #1
 8002092:	f887 2027 	strb.w	r2, [r7, #39]	@ 0x27
 8002096:	461c      	mov	r4, r3
 8002098:	482c      	ldr	r0, [pc, #176]	@ (800214c <Control_Process+0xec>)
 800209a:	f7ff fe41 	bl	8001d20 <UART_Receive_Byte>
 800209e:	4603      	mov	r3, r0
 80020a0:	461a      	mov	r2, r3
 80020a2:	f104 0328 	add.w	r3, r4, #40	@ 0x28
 80020a6:	443b      	add	r3, r7
 80020a8:	f803 2c28 	strb.w	r2, [r3, #-40]
        while(UART_Available(&ESP32_UART) && idx < 31)
 80020ac:	4827      	ldr	r0, [pc, #156]	@ (800214c <Control_Process+0xec>)
 80020ae:	f7ff fe65 	bl	8001d7c <UART_Available>
 80020b2:	4603      	mov	r3, r0
 80020b4:	2b00      	cmp	r3, #0
 80020b6:	d003      	beq.n	80020c0 <Control_Process+0x60>
 80020b8:	f897 3027 	ldrb.w	r3, [r7, #39]	@ 0x27
 80020bc:	2b1e      	cmp	r3, #30
 80020be:	d9e5      	bls.n	800208c <Control_Process+0x2c>
        }
        cmd[idx] = '\0';
 80020c0:	f897 3027 	ldrb.w	r3, [r7, #39]	@ 0x27
 80020c4:	3328      	adds	r3, #40	@ 0x28
 80020c6:	443b      	add	r3, r7
 80020c8:	2200      	movs	r2, #0
 80020ca:	f803 2c28 	strb.w	r2, [r3, #-40]
        // Delete \r\n if present
        for(uint8_t i=0; i<idx; i++)
 80020ce:	2300      	movs	r3, #0
 80020d0:	f887 3026 	strb.w	r3, [r7, #38]	@ 0x26
 80020d4:	e01c      	b.n	8002110 <Control_Process+0xb0>
        {
            if(cmd[i] == '\r' || cmd[i] == '\n')
 80020d6:	f897 3026 	ldrb.w	r3, [r7, #38]	@ 0x26
 80020da:	3328      	adds	r3, #40	@ 0x28
 80020dc:	443b      	add	r3, r7
 80020de:	f813 3c28 	ldrb.w	r3, [r3, #-40]
 80020e2:	2b0d      	cmp	r3, #13
 80020e4:	d007      	beq.n	80020f6 <Control_Process+0x96>
 80020e6:	f897 3026 	ldrb.w	r3, [r7, #38]	@ 0x26
 80020ea:	3328      	adds	r3, #40	@ 0x28
 80020ec:	443b      	add	r3, r7
 80020ee:	f813 3c28 	ldrb.w	r3, [r3, #-40]
 80020f2:	2b0a      	cmp	r3, #10
 80020f4:	d107      	bne.n	8002106 <Control_Process+0xa6>
            {
                cmd[i] = '\0';
 80020f6:	f897 3026 	ldrb.w	r3, [r7, #38]	@ 0x26
 80020fa:	3328      	adds	r3, #40	@ 0x28
 80020fc:	443b      	add	r3, r7
 80020fe:	2200      	movs	r2, #0
 8002100:	f803 2c28 	strb.w	r2, [r3, #-40]
                break;
 8002104:	e00a      	b.n	800211c <Control_Process+0xbc>
        for(uint8_t i=0; i<idx; i++)
 8002106:	f897 3026 	ldrb.w	r3, [r7, #38]	@ 0x26
 800210a:	3301      	adds	r3, #1
 800210c:	f887 3026 	strb.w	r3, [r7, #38]	@ 0x26
 8002110:	f897 2026 	ldrb.w	r2, [r7, #38]	@ 0x26
 8002114:	f897 3027 	ldrb.w	r3, [r7, #39]	@ 0x27
 8002118:	429a      	cmp	r2, r3
 800211a:	d3dc      	bcc.n	80020d6 <Control_Process+0x76>
            }
        }
        Control_ProcessCommand(cmd);
 800211c:	463b      	mov	r3, r7
 800211e:	4618      	mov	r0, r3
 8002120:	f7ff ff0a 	bl	8001f38 <Control_ProcessCommand>
    }

    // Automatic control every 2 seconds (in AUTO mode)
    if(currentMode == MODE_AUTO)
 8002124:	4b0a      	ldr	r3, [pc, #40]	@ (8002150 <Control_Process+0xf0>)
 8002126:	781b      	ldrb	r3, [r3, #0]
 8002128:	2b00      	cmp	r3, #0
 800212a:	d10b      	bne.n	8002144 <Control_Process+0xe4>
    {
        if(now - lastRun >= 2000)
 800212c:	4b09      	ldr	r3, [pc, #36]	@ (8002154 <Control_Process+0xf4>)
 800212e:	681b      	ldr	r3, [r3, #0]
 8002130:	6a3a      	ldr	r2, [r7, #32]
 8002132:	1ad3      	subs	r3, r2, r3
 8002134:	f5b3 6ffa 	cmp.w	r3, #2000	@ 0x7d0
 8002138:	d304      	bcc.n	8002144 <Control_Process+0xe4>
        {
            Control_AutoUpdate();
 800213a:	f7ff fea9 	bl	8001e90 <Control_AutoUpdate>
            lastRun = now;
 800213e:	4a05      	ldr	r2, [pc, #20]	@ (8002154 <Control_Process+0xf4>)
 8002140:	6a3b      	ldr	r3, [r7, #32]
 8002142:	6013      	str	r3, [r2, #0]
        }
    }
}
 8002144:	bf00      	nop
 8002146:	372c      	adds	r7, #44	@ 0x2c
 8002148:	46bd      	mov	sp, r7
 800214a:	bd90      	pop	{r4, r7, pc}
 800214c:	2000000c 	.word	0x2000000c
 8002150:	2000095c 	.word	0x2000095c
 8002154:	20000970 	.word	0x20000970

08002158 <DWT_Init>:
#endif

// -----------------------------------------------
// DWT Init
// -----------------------------------------------
void DWT_Init(){
 8002158:	b580      	push	{r7, lr}
 800215a:	af00      	add	r7, sp, #0
	CoreDebug->DEMCR |= CoreDebug_DEMCR_TRCENA_Msk;		// Enable TRC
 800215c:	4b09      	ldr	r3, [pc, #36]	@ (8002184 <DWT_Init+0x2c>)
 800215e:	68db      	ldr	r3, [r3, #12]
 8002160:	4a08      	ldr	r2, [pc, #32]	@ (8002184 <DWT_Init+0x2c>)
 8002162:	f043 7380 	orr.w	r3, r3, #16777216	@ 0x1000000
 8002166:	60d3      	str	r3, [r2, #12]
	DWT->CYCCNT = 0;									// Reset counter
 8002168:	4b07      	ldr	r3, [pc, #28]	@ (8002188 <DWT_Init+0x30>)
 800216a:	2200      	movs	r2, #0
 800216c:	605a      	str	r2, [r3, #4]
	DWT->CTRL |= DWT_CTRL_CYCCNTENA_Msk;				// Enable counter
 800216e:	4b06      	ldr	r3, [pc, #24]	@ (8002188 <DWT_Init+0x30>)
 8002170:	681b      	ldr	r3, [r3, #0]
 8002172:	4a05      	ldr	r2, [pc, #20]	@ (8002188 <DWT_Init+0x30>)
 8002174:	f043 0301 	orr.w	r3, r3, #1
 8002178:	6013      	str	r3, [r2, #0]

	SystemCoreClockUpdate();							// Update SystemCoreClock variable
 800217a:	f7fe f8a3 	bl	80002c4 <SystemCoreClockUpdate>
}
 800217e:	bf00      	nop
 8002180:	bd80      	pop	{r7, pc}
 8002182:	bf00      	nop
 8002184:	e000edf0 	.word	0xe000edf0
 8002188:	e0001000 	.word	0xe0001000

0800218c <DWT_tick>:

// -----------------------------------------------
// DWT Get Ticks
// -----------------------------------------------
uint32_t DWT_tick() {
 800218c:	b480      	push	{r7}
 800218e:	af00      	add	r7, sp, #0
	return DWT->CYCCNT;
 8002190:	4b03      	ldr	r3, [pc, #12]	@ (80021a0 <DWT_tick+0x14>)
 8002192:	685b      	ldr	r3, [r3, #4]
}
 8002194:	4618      	mov	r0, r3
 8002196:	46bd      	mov	sp, r7
 8002198:	f85d 7b04 	ldr.w	r7, [sp], #4
 800219c:	4770      	bx	lr
 800219e:	bf00      	nop
 80021a0:	e0001000 	.word	0xe0001000

080021a4 <DWT_millis>:

// -----------------------------------------------
// DWT Get Milliseconds
// -----------------------------------------------
uint32_t DWT_millis(void) {
 80021a4:	b580      	push	{r7, lr}
 80021a6:	af00      	add	r7, sp, #0
	return DWT_tick() / MS_COEFF;						// tick to ms
 80021a8:	f7ff fff0 	bl	800218c <DWT_tick>
 80021ac:	4602      	mov	r2, r0
 80021ae:	4b05      	ldr	r3, [pc, #20]	@ (80021c4 <DWT_millis+0x20>)
 80021b0:	681b      	ldr	r3, [r3, #0]
 80021b2:	4905      	ldr	r1, [pc, #20]	@ (80021c8 <DWT_millis+0x24>)
 80021b4:	fba1 1303 	umull	r1, r3, r1, r3
 80021b8:	099b      	lsrs	r3, r3, #6
 80021ba:	fbb2 f3f3 	udiv	r3, r2, r3
}
 80021be:	4618      	mov	r0, r3
 80021c0:	bd80      	pop	{r7, pc}
 80021c2:	bf00      	nop
 80021c4:	20000000 	.word	0x20000000
 80021c8:	10624dd3 	.word	0x10624dd3

080021cc <DWT_micros>:

// -----------------------------------------------
// DWT Get Microseconds
// -----------------------------------------------
uint32_t DWT_micros(void) {
 80021cc:	b580      	push	{r7, lr}
 80021ce:	af00      	add	r7, sp, #0
	return DWT_tick() / US_COEFF;						// tick to us
 80021d0:	f7ff ffdc 	bl	800218c <DWT_tick>
 80021d4:	4602      	mov	r2, r0
 80021d6:	4b05      	ldr	r3, [pc, #20]	@ (80021ec <DWT_micros+0x20>)
 80021d8:	681b      	ldr	r3, [r3, #0]
 80021da:	4905      	ldr	r1, [pc, #20]	@ (80021f0 <DWT_micros+0x24>)
 80021dc:	fba1 1303 	umull	r1, r3, r1, r3
 80021e0:	0c9b      	lsrs	r3, r3, #18
 80021e2:	fbb2 f3f3 	udiv	r3, r2, r3
}
 80021e6:	4618      	mov	r0, r3
 80021e8:	bd80      	pop	{r7, pc}
 80021ea:	bf00      	nop
 80021ec:	20000000 	.word	0x20000000
 80021f0:	431bde83 	.word	0x431bde83

080021f4 <DWT_delay_ms>:

// -----------------------------------------------
// DWT Blocking Delay (ms)
// -----------------------------------------------
void DWT_delay_ms(uint32_t delay){
 80021f4:	b580      	push	{r7, lr}
 80021f6:	b084      	sub	sp, #16
 80021f8:	af00      	add	r7, sp, #0
 80021fa:	6078      	str	r0, [r7, #4]
	delay *= MS_COEFF;									// ms to tick
 80021fc:	4b0d      	ldr	r3, [pc, #52]	@ (8002234 <DWT_delay_ms+0x40>)
 80021fe:	681b      	ldr	r3, [r3, #0]
 8002200:	4a0d      	ldr	r2, [pc, #52]	@ (8002238 <DWT_delay_ms+0x44>)
 8002202:	fba2 2303 	umull	r2, r3, r2, r3
 8002206:	099a      	lsrs	r2, r3, #6
 8002208:	687b      	ldr	r3, [r7, #4]
 800220a:	fb02 f303 	mul.w	r3, r2, r3
 800220e:	607b      	str	r3, [r7, #4]
	uint32_t t0 = DWT_tick();
 8002210:	f7ff ffbc 	bl	800218c <DWT_tick>
 8002214:	60f8      	str	r0, [r7, #12]
	while((DWT_tick() - t0) < delay);
 8002216:	bf00      	nop
 8002218:	f7ff ffb8 	bl	800218c <DWT_tick>
 800221c:	4602      	mov	r2, r0
 800221e:	68fb      	ldr	r3, [r7, #12]
 8002220:	1ad3      	subs	r3, r2, r3
 8002222:	687a      	ldr	r2, [r7, #4]
 8002224:	429a      	cmp	r2, r3
 8002226:	d8f7      	bhi.n	8002218 <DWT_delay_ms+0x24>
}
 8002228:	bf00      	nop
 800222a:	bf00      	nop
 800222c:	3710      	adds	r7, #16
 800222e:	46bd      	mov	sp, r7
 8002230:	bd80      	pop	{r7, pc}
 8002232:	bf00      	nop
 8002234:	20000000 	.word	0x20000000
 8002238:	10624dd3 	.word	0x10624dd3

0800223c <Relay_Init>:

static uint8_t pumpState = 0;
static uint8_t mistState = 0;

void Relay_Init(GPIO_TypeDef* port, uint8_t pin)
{
 800223c:	b580      	push	{r7, lr}
 800223e:	b082      	sub	sp, #8
 8002240:	af00      	add	r7, sp, #0
 8002242:	6078      	str	r0, [r7, #4]
 8002244:	460b      	mov	r3, r1
 8002246:	70fb      	strb	r3, [r7, #3]
    GPIO_Pin_Setup(port, pin, GENERAL_PURPOSE_OUTPUT_PUSHPULL, NONE);
 8002248:	78f9      	ldrb	r1, [r7, #3]
 800224a:	2300      	movs	r3, #0
 800224c:	224c      	movs	r2, #76	@ 0x4c
 800224e:	6878      	ldr	r0, [r7, #4]
 8002250:	f7fe fda4 	bl	8000d9c <GPIO_Pin_Setup>
    // Default OFF (HIGH because low level trigger)
    port->BSRR = (1 << (pin + 16));
 8002254:	78fb      	ldrb	r3, [r7, #3]
 8002256:	3310      	adds	r3, #16
 8002258:	2201      	movs	r2, #1
 800225a:	fa02 f303 	lsl.w	r3, r2, r3
 800225e:	461a      	mov	r2, r3
 8002260:	687b      	ldr	r3, [r7, #4]
 8002262:	619a      	str	r2, [r3, #24]
}
 8002264:	bf00      	nop
 8002266:	3708      	adds	r7, #8
 8002268:	46bd      	mov	sp, r7
 800226a:	bd80      	pop	{r7, pc}

0800226c <Relay_SetPump>:

void Relay_SetPump(uint8_t state)
{
 800226c:	b480      	push	{r7}
 800226e:	b083      	sub	sp, #12
 8002270:	af00      	add	r7, sp, #0
 8002272:	4603      	mov	r3, r0
 8002274:	71fb      	strb	r3, [r7, #7]
    pumpState = state ? 1 : 0;
 8002276:	79fb      	ldrb	r3, [r7, #7]
 8002278:	2b00      	cmp	r3, #0
 800227a:	bf14      	ite	ne
 800227c:	2301      	movne	r3, #1
 800227e:	2300      	moveq	r3, #0
 8002280:	b2db      	uxtb	r3, r3
 8002282:	461a      	mov	r2, r3
 8002284:	4b0c      	ldr	r3, [pc, #48]	@ (80022b8 <Relay_SetPump+0x4c>)
 8002286:	701a      	strb	r2, [r3, #0]
    if(pumpState) {
 8002288:	4b0b      	ldr	r3, [pc, #44]	@ (80022b8 <Relay_SetPump+0x4c>)
 800228a:	781b      	ldrb	r3, [r3, #0]
 800228c:	2b00      	cmp	r3, #0
 800228e:	d00a      	beq.n	80022a6 <Relay_SetPump+0x3a>
    	RELAY_PORT->BSRR &= ~(1 << PUMP_PIN);
 8002290:	4b0a      	ldr	r3, [pc, #40]	@ (80022bc <Relay_SetPump+0x50>)
 8002292:	699b      	ldr	r3, [r3, #24]
 8002294:	4a09      	ldr	r2, [pc, #36]	@ (80022bc <Relay_SetPump+0x50>)
 8002296:	f023 0301 	bic.w	r3, r3, #1
 800229a:	6193      	str	r3, [r2, #24]
        RELAY_PORT->BSRR = (1 << (PUMP_PIN + 16));  // LOW -> ON
 800229c:	4b07      	ldr	r3, [pc, #28]	@ (80022bc <Relay_SetPump+0x50>)
 800229e:	f44f 3280 	mov.w	r2, #65536	@ 0x10000
 80022a2:	619a      	str	r2, [r3, #24]
    } else
        RELAY_PORT->BSRR = (1 << PUMP_PIN);         // HIGH -> OFF
}
 80022a4:	e002      	b.n	80022ac <Relay_SetPump+0x40>
        RELAY_PORT->BSRR = (1 << PUMP_PIN);         // HIGH -> OFF
 80022a6:	4b05      	ldr	r3, [pc, #20]	@ (80022bc <Relay_SetPump+0x50>)
 80022a8:	2201      	movs	r2, #1
 80022aa:	619a      	str	r2, [r3, #24]
}
 80022ac:	bf00      	nop
 80022ae:	370c      	adds	r7, #12
 80022b0:	46bd      	mov	sp, r7
 80022b2:	f85d 7b04 	ldr.w	r7, [sp], #4
 80022b6:	4770      	bx	lr
 80022b8:	20000974 	.word	0x20000974
 80022bc:	40020400 	.word	0x40020400

080022c0 <Relay_SetMist>:

void Relay_SetMist(uint8_t state)
{
 80022c0:	b480      	push	{r7}
 80022c2:	b083      	sub	sp, #12
 80022c4:	af00      	add	r7, sp, #0
 80022c6:	4603      	mov	r3, r0
 80022c8:	71fb      	strb	r3, [r7, #7]
    mistState = state ? 1 : 0;
 80022ca:	79fb      	ldrb	r3, [r7, #7]
 80022cc:	2b00      	cmp	r3, #0
 80022ce:	bf14      	ite	ne
 80022d0:	2301      	movne	r3, #1
 80022d2:	2300      	moveq	r3, #0
 80022d4:	b2db      	uxtb	r3, r3
 80022d6:	461a      	mov	r2, r3
 80022d8:	4b09      	ldr	r3, [pc, #36]	@ (8002300 <Relay_SetMist+0x40>)
 80022da:	701a      	strb	r2, [r3, #0]
    if(mistState)
 80022dc:	4b08      	ldr	r3, [pc, #32]	@ (8002300 <Relay_SetMist+0x40>)
 80022de:	781b      	ldrb	r3, [r3, #0]
 80022e0:	2b00      	cmp	r3, #0
 80022e2:	d004      	beq.n	80022ee <Relay_SetMist+0x2e>
        RELAY_PORT->BSRR = (1 << (MIST_PIN + 16));
 80022e4:	4b07      	ldr	r3, [pc, #28]	@ (8002304 <Relay_SetMist+0x44>)
 80022e6:	f44f 3200 	mov.w	r2, #131072	@ 0x20000
 80022ea:	619a      	str	r2, [r3, #24]
    else
        RELAY_PORT->BSRR = (1 << MIST_PIN);
}
 80022ec:	e002      	b.n	80022f4 <Relay_SetMist+0x34>
        RELAY_PORT->BSRR = (1 << MIST_PIN);
 80022ee:	4b05      	ldr	r3, [pc, #20]	@ (8002304 <Relay_SetMist+0x44>)
 80022f0:	2202      	movs	r2, #2
 80022f2:	619a      	str	r2, [r3, #24]
}
 80022f4:	bf00      	nop
 80022f6:	370c      	adds	r7, #12
 80022f8:	46bd      	mov	sp, r7
 80022fa:	f85d 7b04 	ldr.w	r7, [sp], #4
 80022fe:	4770      	bx	lr
 8002300:	20000975 	.word	0x20000975
 8002304:	40020400 	.word	0x40020400

08002308 <main>:
#if ((MCU_PLL_N_VALUE < 192U) || (MCU_PLL_N_VALUE > 432U))
#error "Computed PLL_N is outside the STM32F411 valid range"
#endif

int main(void)
{
 8002308:	b580      	push	{r7, lr}
 800230a:	b09a      	sub	sp, #104	@ 0x68
 800230c:	af02      	add	r7, sp, #8
	/* Variable declarations */
	char line[3][MAX_OLED_CHARS + 1];
	char buf[32];

	/* Initialize the system clock */
	SystemInit();
 800230e:	f7fd ffc7 	bl	80002a0 <SystemInit>
	MCU_Clock_Setup();
 8002312:	f000 f8f5 	bl	8002500 <MCU_Clock_Setup>
	DWT_Init();
 8002316:	f7ff ff1f 	bl	8002158 <DWT_Init>

	SH1106_Init(OLED_PORT);
 800231a:	4852      	ldr	r0, [pc, #328]	@ (8002464 <main+0x15c>)
 800231c:	f7ff f938 	bl	8001590 <SH1106_Init>
	BH1750_Init(BH1750_PORT);
 8002320:	4850      	ldr	r0, [pc, #320]	@ (8002464 <main+0x15c>)
 8002322:	f7fe fb45 	bl	80009b0 <BH1750_Init>
	DHT11_Init(DHT11_PORT, DHT11_PIN);
 8002326:	2105      	movs	r1, #5
 8002328:	484f      	ldr	r0, [pc, #316]	@ (8002468 <main+0x160>)
 800232a:	f7fe fc0b 	bl	8000b44 <DHT11_Init>
	ADC_Init();
 800232e:	f7fe faa7 	bl	8000880 <ADC_Init>
	UART_Init(&ESP32_UART);
 8002332:	484e      	ldr	r0, [pc, #312]	@ (800246c <main+0x164>)
 8002334:	f7ff fbbc 	bl	8001ab0 <UART_Init>
	Relay_Init(GPIOB, GPIO_PIN_0);
 8002338:	2100      	movs	r1, #0
 800233a:	484b      	ldr	r0, [pc, #300]	@ (8002468 <main+0x160>)
 800233c:	f7ff ff7e 	bl	800223c <Relay_Init>
	Relay_Init(GPIOB, GPIO_PIN_1);
 8002340:	2101      	movs	r1, #1
 8002342:	4849      	ldr	r0, [pc, #292]	@ (8002468 <main+0x160>)
 8002344:	f7ff ff7a 	bl	800223c <Relay_Init>
	Control_Init();
 8002348:	f7ff fd6c 	bl	8001e24 <Control_Init>
	// Configure PC13 as output for on-board LED
	GPIO_Pin_Setup(GPIOC, GPIO_PIN_13, GENERAL_PURPOSE_OUTPUT_PUSHPULL, NONE);
 800234c:	2300      	movs	r3, #0
 800234e:	224c      	movs	r2, #76	@ 0x4c
 8002350:	210d      	movs	r1, #13
 8002352:	4847      	ldr	r0, [pc, #284]	@ (8002470 <main+0x168>)
 8002354:	f7fe fd22 	bl	8000d9c <GPIO_Pin_Setup>

	OLED_ShowLines("DHT11 OLED SH1106", "Initializing...", "");
 8002358:	4a46      	ldr	r2, [pc, #280]	@ (8002474 <main+0x16c>)
 800235a:	4947      	ldr	r1, [pc, #284]	@ (8002478 <main+0x170>)
 800235c:	4847      	ldr	r0, [pc, #284]	@ (800247c <main+0x174>)
 800235e:	f000 f961 	bl	8002624 <OLED_ShowLines>
	DWT_delay_ms(500);
 8002362:	f44f 70fa 	mov.w	r0, #500	@ 0x1f4
 8002366:	f7ff ff45 	bl	80021f4 <DWT_delay_ms>

	/* Loop forever */
	while (1)
	{
		GPIOC->ODR ^= GPIO_ODR_OD13; // Blink on-board LED
 800236a:	4b41      	ldr	r3, [pc, #260]	@ (8002470 <main+0x168>)
 800236c:	695b      	ldr	r3, [r3, #20]
 800236e:	4a40      	ldr	r2, [pc, #256]	@ (8002470 <main+0x168>)
 8002370:	f483 5300 	eor.w	r3, r3, #8192	@ 0x2000
 8002374:	6153      	str	r3, [r2, #20]

		if (DHT11_read(&dht11))
 8002376:	4842      	ldr	r0, [pc, #264]	@ (8002480 <main+0x178>)
 8002378:	f7fe fcba 	bl	8000cf0 <DHT11_read>
 800237c:	4603      	mov	r3, r0
 800237e:	2b00      	cmp	r3, #0
 8002380:	d00d      	beq.n	800239e <main+0x96>
			 snprintf(line[0], sizeof(line[0]), "T: %u C  H: %u%%", dht11.temperature,dht11.humidity);
 8002382:	4b3f      	ldr	r3, [pc, #252]	@ (8002480 <main+0x178>)
 8002384:	785b      	ldrb	r3, [r3, #1]
 8002386:	461a      	mov	r2, r3
 8002388:	4b3d      	ldr	r3, [pc, #244]	@ (8002480 <main+0x178>)
 800238a:	781b      	ldrb	r3, [r3, #0]
 800238c:	f107 0024 	add.w	r0, r7, #36	@ 0x24
 8002390:	9300      	str	r3, [sp, #0]
 8002392:	4613      	mov	r3, r2
 8002394:	4a3b      	ldr	r2, [pc, #236]	@ (8002484 <main+0x17c>)
 8002396:	2113      	movs	r1, #19
 8002398:	f000 f9ee 	bl	8002778 <sniprintf>
 800239c:	e006      	b.n	80023ac <main+0xa4>
		else snprintf(line[0], sizeof(line[0]), "DHT11 Error");
 800239e:	f107 0324 	add.w	r3, r7, #36	@ 0x24
 80023a2:	4a39      	ldr	r2, [pc, #228]	@ (8002488 <main+0x180>)
 80023a4:	2113      	movs	r1, #19
 80023a6:	4618      	mov	r0, r3
 80023a8:	f000 f9e6 	bl	8002778 <sniprintf>

		soilMoisture = ADC_Read();
 80023ac:	f7fe fad4 	bl	8000958 <ADC_Read>
 80023b0:	4603      	mov	r3, r0
 80023b2:	461a      	mov	r2, r3
 80023b4:	4b35      	ldr	r3, [pc, #212]	@ (800248c <main+0x184>)
 80023b6:	801a      	strh	r2, [r3, #0]
		lux_f = BH1750_ReadLux(BH1750_CONT_H_RES_MODE);
 80023b8:	2010      	movs	r0, #16
 80023ba:	f7fe fb8b 	bl	8000ad4 <BH1750_ReadLux>
 80023be:	eef0 7a40 	vmov.f32	s15, s0
 80023c2:	4b33      	ldr	r3, [pc, #204]	@ (8002490 <main+0x188>)
 80023c4:	edc3 7a00 	vstr	s15, [r3]

		if (lux_f >= 0)
 80023c8:	4b31      	ldr	r3, [pc, #196]	@ (8002490 <main+0x188>)
 80023ca:	edd3 7a00 	vldr	s15, [r3]
 80023ce:	eef5 7ac0 	vcmpe.f32	s15, #0.0
 80023d2:	eef1 fa10 	vmrs	APSR_nzcv, fpscr
 80023d6:	db16      	blt.n	8002406 <main+0xfe>
			snprintf(line[1], sizeof(line[1]), "L:%u lx S: %u", (uint16_t)lux_f, soilMoisture);
 80023d8:	4b2d      	ldr	r3, [pc, #180]	@ (8002490 <main+0x188>)
 80023da:	edd3 7a00 	vldr	s15, [r3]
 80023de:	eefc 7ae7 	vcvt.u32.f32	s15, s15
 80023e2:	ee17 3a90 	vmov	r3, s15
 80023e6:	b29b      	uxth	r3, r3
 80023e8:	4619      	mov	r1, r3
 80023ea:	4b28      	ldr	r3, [pc, #160]	@ (800248c <main+0x184>)
 80023ec:	881b      	ldrh	r3, [r3, #0]
 80023ee:	461a      	mov	r2, r3
 80023f0:	f107 0324 	add.w	r3, r7, #36	@ 0x24
 80023f4:	f103 0013 	add.w	r0, r3, #19
 80023f8:	9200      	str	r2, [sp, #0]
 80023fa:	460b      	mov	r3, r1
 80023fc:	4a25      	ldr	r2, [pc, #148]	@ (8002494 <main+0x18c>)
 80023fe:	2113      	movs	r1, #19
 8002400:	f000 f9ba 	bl	8002778 <sniprintf>
 8002404:	e007      	b.n	8002416 <main+0x10e>
		else snprintf(line[1], sizeof(line[1]), "Lux Error");
 8002406:	f107 0324 	add.w	r3, r7, #36	@ 0x24
 800240a:	3313      	adds	r3, #19
 800240c:	4a22      	ldr	r2, [pc, #136]	@ (8002498 <main+0x190>)
 800240e:	2113      	movs	r1, #19
 8002410:	4618      	mov	r0, r3
 8002412:	f000 f9b1 	bl	8002778 <sniprintf>

		//snprintf(buf, sizeof(buf), "T:%u,H:%u,L:%u,S:%u\n", dht11.temperature, dht11.humidity, (uint16_t)lux_f,soilMoisture);
		snprintf(buf, sizeof(buf), "%u\n", soilMoisture);
 8002416:	4b1d      	ldr	r3, [pc, #116]	@ (800248c <main+0x184>)
 8002418:	881b      	ldrh	r3, [r3, #0]
 800241a:	1d38      	adds	r0, r7, #4
 800241c:	4a1f      	ldr	r2, [pc, #124]	@ (800249c <main+0x194>)
 800241e:	2120      	movs	r1, #32
 8002420:	f000 f9aa 	bl	8002778 <sniprintf>
		UART_Transmit_Buffer(&ESP32_UART, buf);
 8002424:	1d3b      	adds	r3, r7, #4
 8002426:	4619      	mov	r1, r3
 8002428:	4810      	ldr	r0, [pc, #64]	@ (800246c <main+0x164>)
 800242a:	f7ff fc61 	bl	8001cf0 <UART_Transmit_Buffer>
		memset(buf,'\0',sizeof(buf));
 800242e:	1d3b      	adds	r3, r7, #4
 8002430:	2220      	movs	r2, #32
 8002432:	2100      	movs	r1, #0
 8002434:	4618      	mov	r0, r3
 8002436:	f000 f9d5 	bl	80027e4 <memset>

		OLED_ShowLines(line[0], line[1], line[2]);
 800243a:	f107 0324 	add.w	r3, r7, #36	@ 0x24
 800243e:	f103 0226 	add.w	r2, r3, #38	@ 0x26
 8002442:	f107 0324 	add.w	r3, r7, #36	@ 0x24
 8002446:	f103 0113 	add.w	r1, r3, #19
 800244a:	f107 0324 	add.w	r3, r7, #36	@ 0x24
 800244e:	4618      	mov	r0, r3
 8002450:	f000 f8e8 	bl	8002624 <OLED_ShowLines>
		Control_Process();
 8002454:	f7ff fe04 	bl	8002060 <Control_Process>

		DWT_delay_ms(1000);
 8002458:	f44f 707a 	mov.w	r0, #1000	@ 0x3e8
 800245c:	f7ff feca 	bl	80021f4 <DWT_delay_ms>
		GPIOC->ODR ^= GPIO_ODR_OD13; // Blink on-board LED
 8002460:	e783      	b.n	800236a <main+0x62>
 8002462:	bf00      	nop
 8002464:	40005400 	.word	0x40005400
 8002468:	40020400 	.word	0x40020400
 800246c:	2000000c 	.word	0x2000000c
 8002470:	40020800 	.word	0x40020800
 8002474:	080031e0 	.word	0x080031e0
 8002478:	080031e4 	.word	0x080031e4
 800247c:	080031f4 	.word	0x080031f4
 8002480:	20000980 	.word	0x20000980
 8002484:	08003208 	.word	0x08003208
 8002488:	0800321c 	.word	0x0800321c
 800248c:	20000988 	.word	0x20000988
 8002490:	20000984 	.word	0x20000984
 8002494:	08003228 	.word	0x08003228
 8002498:	08003238 	.word	0x08003238
 800249c:	08003244 	.word	0x08003244

080024a0 <SystemAPB1_Clock_Speed>:
}

/* -----------------------Function Prototype----------------------------*/
//---------------------------------------------------------------------//
int32_t SystemAPB1_Clock_Speed(void)
{
 80024a0:	b480      	push	{r7}
 80024a2:	af00      	add	r7, sp, #0
	return (SystemCoreClock >> APBPrescTable[(RCC->CFGR & RCC_CFGR_PPRE1) >> RCC_CFGR_PPRE1_Pos]);
 80024a4:	4b07      	ldr	r3, [pc, #28]	@ (80024c4 <SystemAPB1_Clock_Speed+0x24>)
 80024a6:	681b      	ldr	r3, [r3, #0]
 80024a8:	4a07      	ldr	r2, [pc, #28]	@ (80024c8 <SystemAPB1_Clock_Speed+0x28>)
 80024aa:	6892      	ldr	r2, [r2, #8]
 80024ac:	0a92      	lsrs	r2, r2, #10
 80024ae:	f002 0207 	and.w	r2, r2, #7
 80024b2:	4906      	ldr	r1, [pc, #24]	@ (80024cc <SystemAPB1_Clock_Speed+0x2c>)
 80024b4:	5c8a      	ldrb	r2, [r1, r2]
 80024b6:	40d3      	lsrs	r3, r2
}
 80024b8:	4618      	mov	r0, r3
 80024ba:	46bd      	mov	sp, r7
 80024bc:	f85d 7b04 	ldr.w	r7, [sp], #4
 80024c0:	4770      	bx	lr
 80024c2:	bf00      	nop
 80024c4:	20000000 	.word	0x20000000
 80024c8:	40023800 	.word	0x40023800
 80024cc:	0800325c 	.word	0x0800325c

080024d0 <SystemAPB2_Clock_Speed>:

int32_t SystemAPB2_Clock_Speed(void)
{
 80024d0:	b480      	push	{r7}
 80024d2:	af00      	add	r7, sp, #0
	return (SystemCoreClock >> APBPrescTable[(RCC->CFGR & RCC_CFGR_PPRE2) >> RCC_CFGR_PPRE2_Pos]);
 80024d4:	4b07      	ldr	r3, [pc, #28]	@ (80024f4 <SystemAPB2_Clock_Speed+0x24>)
 80024d6:	681b      	ldr	r3, [r3, #0]
 80024d8:	4a07      	ldr	r2, [pc, #28]	@ (80024f8 <SystemAPB2_Clock_Speed+0x28>)
 80024da:	6892      	ldr	r2, [r2, #8]
 80024dc:	0b52      	lsrs	r2, r2, #13
 80024de:	f002 0207 	and.w	r2, r2, #7
 80024e2:	4906      	ldr	r1, [pc, #24]	@ (80024fc <SystemAPB2_Clock_Speed+0x2c>)
 80024e4:	5c8a      	ldrb	r2, [r1, r2]
 80024e6:	40d3      	lsrs	r3, r2
}
 80024e8:	4618      	mov	r0, r3
 80024ea:	46bd      	mov	sp, r7
 80024ec:	f85d 7b04 	ldr.w	r7, [sp], #4
 80024f0:	4770      	bx	lr
 80024f2:	bf00      	nop
 80024f4:	20000000 	.word	0x20000000
 80024f8:	40023800 	.word	0x40023800
 80024fc:	0800325c 	.word	0x0800325c

08002500 <MCU_Clock_Setup>:

void MCU_Clock_Setup(void)
{
 8002500:	b580      	push	{r7, lr}
 8002502:	b082      	sub	sp, #8
 8002504:	af00      	add	r7, sp, #0
	SystemInit();
 8002506:	f7fd fecb 	bl	80002a0 <SystemInit>
	// Clock is derived from HSE_VALUE, so PLL_N adapts to the external crystal.
	uint8_t pll_m = (uint8_t)MCU_PLL_M_VALUE;
 800250a:	2319      	movs	r3, #25
 800250c:	71fb      	strb	r3, [r7, #7]
	uint8_t pll_n = (uint8_t)MCU_PLL_N_VALUE;
 800250e:	23c0      	movs	r3, #192	@ 0xc0
 8002510:	71bb      	strb	r3, [r7, #6]
	uint8_t pll_p = 0; // 0x00: PLLP = 2, 0x01: PLLP = 4, 0x02: PLLP = 6, 0x03: PLLP = 8
 8002512:	2300      	movs	r3, #0
 8002514:	717b      	strb	r3, [r7, #5]
	uint8_t pll_q = 4; // Used for USB, SDIO, RNG (48MHz), Using ClockCoreSystem 96MHz
 8002516:	2304      	movs	r3, #4
 8002518:	713b      	strb	r3, [r7, #4]

	RCC->PLLCFGR = 0x00000000;
 800251a:	4b3d      	ldr	r3, [pc, #244]	@ (8002610 <MCU_Clock_Setup+0x110>)
 800251c:	2200      	movs	r2, #0
 800251e:	605a      	str	r2, [r3, #4]

	RCC->CR |= RCC_CR_HSEON;
 8002520:	4b3b      	ldr	r3, [pc, #236]	@ (8002610 <MCU_Clock_Setup+0x110>)
 8002522:	681b      	ldr	r3, [r3, #0]
 8002524:	4a3a      	ldr	r2, [pc, #232]	@ (8002610 <MCU_Clock_Setup+0x110>)
 8002526:	f443 3380 	orr.w	r3, r3, #65536	@ 0x10000
 800252a:	6013      	str	r3, [r2, #0]
	while (!(RCC->CR & RCC_CR_HSERDY)) {}
 800252c:	bf00      	nop
 800252e:	4b38      	ldr	r3, [pc, #224]	@ (8002610 <MCU_Clock_Setup+0x110>)
 8002530:	681b      	ldr	r3, [r3, #0]
 8002532:	f403 3300 	and.w	r3, r3, #131072	@ 0x20000
 8002536:	2b00      	cmp	r3, #0
 8002538:	d0f9      	beq.n	800252e <MCU_Clock_Setup+0x2e>
	RCC->APB1ENR |= RCC_APB1ENR_PWREN;
 800253a:	4b35      	ldr	r3, [pc, #212]	@ (8002610 <MCU_Clock_Setup+0x110>)
 800253c:	6c1b      	ldr	r3, [r3, #64]	@ 0x40
 800253e:	4a34      	ldr	r2, [pc, #208]	@ (8002610 <MCU_Clock_Setup+0x110>)
 8002540:	f043 5380 	orr.w	r3, r3, #268435456	@ 0x10000000
 8002544:	6413      	str	r3, [r2, #64]	@ 0x40
	PWR->CR |= PWR_CR_VOS;
 8002546:	4b33      	ldr	r3, [pc, #204]	@ (8002614 <MCU_Clock_Setup+0x114>)
 8002548:	681b      	ldr	r3, [r3, #0]
 800254a:	4a32      	ldr	r2, [pc, #200]	@ (8002614 <MCU_Clock_Setup+0x114>)
 800254c:	f443 4340 	orr.w	r3, r3, #49152	@ 0xc000
 8002550:	6013      	str	r3, [r2, #0]
	FLASH->ACR |= FLASH_ACR_ICEN | FLASH_ACR_PRFTEN | FLASH_ACR_DCEN | FLASH_ACR_LATENCY_3WS;
 8002552:	4b31      	ldr	r3, [pc, #196]	@ (8002618 <MCU_Clock_Setup+0x118>)
 8002554:	681b      	ldr	r3, [r3, #0]
 8002556:	4a30      	ldr	r2, [pc, #192]	@ (8002618 <MCU_Clock_Setup+0x118>)
 8002558:	f443 63e0 	orr.w	r3, r3, #1792	@ 0x700
 800255c:	f043 0303 	orr.w	r3, r3, #3
 8002560:	6013      	str	r3, [r2, #0]
	RCC->PLLCFGR |= (pll_q << 24) | (pll_p << 16) | (pll_n << 6) | (pll_m << 0);
 8002562:	4b2b      	ldr	r3, [pc, #172]	@ (8002610 <MCU_Clock_Setup+0x110>)
 8002564:	685b      	ldr	r3, [r3, #4]
 8002566:	793a      	ldrb	r2, [r7, #4]
 8002568:	0611      	lsls	r1, r2, #24
 800256a:	797a      	ldrb	r2, [r7, #5]
 800256c:	0412      	lsls	r2, r2, #16
 800256e:	4311      	orrs	r1, r2
 8002570:	79ba      	ldrb	r2, [r7, #6]
 8002572:	0192      	lsls	r2, r2, #6
 8002574:	4311      	orrs	r1, r2
 8002576:	79fa      	ldrb	r2, [r7, #7]
 8002578:	430a      	orrs	r2, r1
 800257a:	4611      	mov	r1, r2
 800257c:	4a24      	ldr	r2, [pc, #144]	@ (8002610 <MCU_Clock_Setup+0x110>)
 800257e:	430b      	orrs	r3, r1
 8002580:	6053      	str	r3, [r2, #4]
	RCC->PLLCFGR |= 1 << 22;
 8002582:	4b23      	ldr	r3, [pc, #140]	@ (8002610 <MCU_Clock_Setup+0x110>)
 8002584:	685b      	ldr	r3, [r3, #4]
 8002586:	4a22      	ldr	r2, [pc, #136]	@ (8002610 <MCU_Clock_Setup+0x110>)
 8002588:	f443 0380 	orr.w	r3, r3, #4194304	@ 0x400000
 800258c:	6053      	str	r3, [r2, #4]
	//  RCC->PLLCFGR = 0x4403019;
	RCC->CFGR |= RCC_CFGR_HPRE_DIV1;
 800258e:	4b20      	ldr	r3, [pc, #128]	@ (8002610 <MCU_Clock_Setup+0x110>)
 8002590:	4a1f      	ldr	r2, [pc, #124]	@ (8002610 <MCU_Clock_Setup+0x110>)
 8002592:	689b      	ldr	r3, [r3, #8]
 8002594:	6093      	str	r3, [r2, #8]
	RCC->CFGR |= RCC_CFGR_PPRE1_DIV2;
 8002596:	4b1e      	ldr	r3, [pc, #120]	@ (8002610 <MCU_Clock_Setup+0x110>)
 8002598:	689b      	ldr	r3, [r3, #8]
 800259a:	4a1d      	ldr	r2, [pc, #116]	@ (8002610 <MCU_Clock_Setup+0x110>)
 800259c:	f443 5380 	orr.w	r3, r3, #4096	@ 0x1000
 80025a0:	6093      	str	r3, [r2, #8]
	RCC->CFGR |= RCC_CFGR_PPRE2_DIV1;
 80025a2:	4b1b      	ldr	r3, [pc, #108]	@ (8002610 <MCU_Clock_Setup+0x110>)
 80025a4:	4a1a      	ldr	r2, [pc, #104]	@ (8002610 <MCU_Clock_Setup+0x110>)
 80025a6:	689b      	ldr	r3, [r3, #8]
 80025a8:	6093      	str	r3, [r2, #8]
	//	RCC-> APB2ENR |= 0x4000;
	RCC->CR |= RCC_CR_PLLON;
 80025aa:	4b19      	ldr	r3, [pc, #100]	@ (8002610 <MCU_Clock_Setup+0x110>)
 80025ac:	681b      	ldr	r3, [r3, #0]
 80025ae:	4a18      	ldr	r2, [pc, #96]	@ (8002610 <MCU_Clock_Setup+0x110>)
 80025b0:	f043 7380 	orr.w	r3, r3, #16777216	@ 0x1000000
 80025b4:	6013      	str	r3, [r2, #0]
	while (!(RCC->CR & RCC_CR_PLLRDY)) {}
 80025b6:	bf00      	nop
 80025b8:	4b15      	ldr	r3, [pc, #84]	@ (8002610 <MCU_Clock_Setup+0x110>)
 80025ba:	681b      	ldr	r3, [r3, #0]
 80025bc:	f003 7300 	and.w	r3, r3, #33554432	@ 0x2000000
 80025c0:	2b00      	cmp	r3, #0
 80025c2:	d0f9      	beq.n	80025b8 <MCU_Clock_Setup+0xb8>
	//	RCC -> CR |= RCC_CR_PLLI2SON;
	//	while(!(RCC->CR & RCC_CR_PLLI2SRDY)){}
	RCC->CFGR |= RCC_CFGR_SW_PLL;
 80025c4:	4b12      	ldr	r3, [pc, #72]	@ (8002610 <MCU_Clock_Setup+0x110>)
 80025c6:	689b      	ldr	r3, [r3, #8]
 80025c8:	4a11      	ldr	r2, [pc, #68]	@ (8002610 <MCU_Clock_Setup+0x110>)
 80025ca:	f043 0302 	orr.w	r3, r3, #2
 80025ce:	6093      	str	r3, [r2, #8]
	while ((RCC->CFGR & RCC_CFGR_SWS_PLL) != RCC_CFGR_SWS_PLL)
 80025d0:	bf00      	nop
 80025d2:	4b0f      	ldr	r3, [pc, #60]	@ (8002610 <MCU_Clock_Setup+0x110>)
 80025d4:	689b      	ldr	r3, [r3, #8]
 80025d6:	f003 0308 	and.w	r3, r3, #8
 80025da:	2b08      	cmp	r3, #8
 80025dc:	d1f9      	bne.n	80025d2 <MCU_Clock_Setup+0xd2>
		;
	SystemCoreClockUpdate();
 80025de:	f7fd fe71 	bl	80002c4 <SystemCoreClockUpdate>
	// SysTick_Config(SystemCoreClock/1000);
	APB1CLK_SPEED = SystemAPB1_Clock_Speed();
 80025e2:	f7ff ff5d 	bl	80024a0 <SystemAPB1_Clock_Speed>
 80025e6:	4603      	mov	r3, r0
 80025e8:	461a      	mov	r2, r3
 80025ea:	4b0c      	ldr	r3, [pc, #48]	@ (800261c <MCU_Clock_Setup+0x11c>)
 80025ec:	601a      	str	r2, [r3, #0]
	APB2CLK_SPEED = SystemAPB2_Clock_Speed();
 80025ee:	f7ff ff6f 	bl	80024d0 <SystemAPB2_Clock_Speed>
 80025f2:	4603      	mov	r3, r0
 80025f4:	461a      	mov	r2, r3
 80025f6:	4b0a      	ldr	r3, [pc, #40]	@ (8002620 <MCU_Clock_Setup+0x120>)
 80025f8:	601a      	str	r2, [r3, #0]
	RCC->APB2ENR |= RCC_APB2ENR_SYSCFGEN;
 80025fa:	4b05      	ldr	r3, [pc, #20]	@ (8002610 <MCU_Clock_Setup+0x110>)
 80025fc:	6c5b      	ldr	r3, [r3, #68]	@ 0x44
 80025fe:	4a04      	ldr	r2, [pc, #16]	@ (8002610 <MCU_Clock_Setup+0x110>)
 8002600:	f443 4380 	orr.w	r3, r3, #16384	@ 0x4000
 8002604:	6453      	str	r3, [r2, #68]	@ 0x44
}
 8002606:	bf00      	nop
 8002608:	3708      	adds	r7, #8
 800260a:	46bd      	mov	sp, r7
 800260c:	bd80      	pop	{r7, pc}
 800260e:	bf00      	nop
 8002610:	40023800 	.word	0x40023800
 8002614:	40007000 	.word	0x40007000
 8002618:	40023c00 	.word	0x40023c00
 800261c:	20000978 	.word	0x20000978
 8002620:	2000097c 	.word	0x2000097c

08002624 <OLED_ShowLines>:

static void OLED_ShowLines(const char *line1, const char *line2, const char *line3)
{
 8002624:	b580      	push	{r7, lr}
 8002626:	b094      	sub	sp, #80	@ 0x50
 8002628:	af00      	add	r7, sp, #0
 800262a:	60f8      	str	r0, [r7, #12]
 800262c:	60b9      	str	r1, [r7, #8]
 800262e:	607a      	str	r2, [r7, #4]
	char display_line1[MAX_OLED_CHARS + 1];
	char display_line2[MAX_OLED_CHARS + 1];
	char display_line3[MAX_OLED_CHARS + 1];

	snprintf(display_line1, sizeof(display_line1), "%s", line1);
 8002630:	f107 003c 	add.w	r0, r7, #60	@ 0x3c
 8002634:	68fb      	ldr	r3, [r7, #12]
 8002636:	4a1e      	ldr	r2, [pc, #120]	@ (80026b0 <OLED_ShowLines+0x8c>)
 8002638:	2113      	movs	r1, #19
 800263a:	f000 f89d 	bl	8002778 <sniprintf>
	snprintf(display_line2, sizeof(display_line2), "%s", line2);
 800263e:	f107 0028 	add.w	r0, r7, #40	@ 0x28
 8002642:	68bb      	ldr	r3, [r7, #8]
 8002644:	4a1a      	ldr	r2, [pc, #104]	@ (80026b0 <OLED_ShowLines+0x8c>)
 8002646:	2113      	movs	r1, #19
 8002648:	f000 f896 	bl	8002778 <sniprintf>
	snprintf(display_line3, sizeof(display_line3), "%s", line3);
 800264c:	f107 0014 	add.w	r0, r7, #20
 8002650:	687b      	ldr	r3, [r7, #4]
 8002652:	4a17      	ldr	r2, [pc, #92]	@ (80026b0 <OLED_ShowLines+0x8c>)
 8002654:	2113      	movs	r1, #19
 8002656:	f000 f88f 	bl	8002778 <sniprintf>

	SH1106_Fill(SH1106_COLOR_BLACK);
 800265a:	2000      	movs	r0, #0
 800265c:	f7ff f836 	bl	80016cc <SH1106_Fill>
	SH1106_GotoXY(0, 0);
 8002660:	2100      	movs	r1, #0
 8002662:	2000      	movs	r0, #0
 8002664:	f7ff f8b4 	bl	80017d0 <SH1106_GotoXY>
	SH1106_Puts(display_line1, &Font_7x10, SH1106_COLOR_WHITE);
 8002668:	f107 033c 	add.w	r3, r7, #60	@ 0x3c
 800266c:	2201      	movs	r2, #1
 800266e:	4911      	ldr	r1, [pc, #68]	@ (80026b4 <OLED_ShowLines+0x90>)
 8002670:	4618      	mov	r0, r3
 8002672:	f7ff f941 	bl	80018f8 <SH1106_Puts>
	SH1106_GotoXY(0, 16);
 8002676:	2110      	movs	r1, #16
 8002678:	2000      	movs	r0, #0
 800267a:	f7ff f8a9 	bl	80017d0 <SH1106_GotoXY>
	SH1106_Puts(display_line2, &Font_7x10, SH1106_COLOR_WHITE);
 800267e:	f107 0328 	add.w	r3, r7, #40	@ 0x28
 8002682:	2201      	movs	r2, #1
 8002684:	490b      	ldr	r1, [pc, #44]	@ (80026b4 <OLED_ShowLines+0x90>)
 8002686:	4618      	mov	r0, r3
 8002688:	f7ff f936 	bl	80018f8 <SH1106_Puts>
	SH1106_GotoXY(0, 32);
 800268c:	2120      	movs	r1, #32
 800268e:	2000      	movs	r0, #0
 8002690:	f7ff f89e 	bl	80017d0 <SH1106_GotoXY>
	SH1106_Puts(display_line3, &Font_7x10, SH1106_COLOR_WHITE);
 8002694:	f107 0314 	add.w	r3, r7, #20
 8002698:	2201      	movs	r2, #1
 800269a:	4906      	ldr	r1, [pc, #24]	@ (80026b4 <OLED_ShowLines+0x90>)
 800269c:	4618      	mov	r0, r3
 800269e:	f7ff f92b 	bl	80018f8 <SH1106_Puts>
	SH1106_UpdateScreen();
 80026a2:	f7fe ffe7 	bl	8001674 <SH1106_UpdateScreen>
}
 80026a6:	bf00      	nop
 80026a8:	3750      	adds	r7, #80	@ 0x50
 80026aa:	46bd      	mov	sp, r7
 80026ac:	bd80      	pop	{r7, pc}
 80026ae:	bf00      	nop
 80026b0:	08003248 	.word	0x08003248
 80026b4:	20000004 	.word	0x20000004

080026b8 <_sbrk>:
 *
 * @param incr Memory size
 * @return Pointer to allocated memory
 */
void *_sbrk(ptrdiff_t incr)
{
 80026b8:	b580      	push	{r7, lr}
 80026ba:	b086      	sub	sp, #24
 80026bc:	af00      	add	r7, sp, #0
 80026be:	6078      	str	r0, [r7, #4]
  extern uint8_t _end; /* Symbol defined in the linker script */
  extern uint8_t _estack; /* Symbol defined in the linker script */
  extern uint32_t _Min_Stack_Size; /* Symbol defined in the linker script */
  const uint32_t stack_limit = (uint32_t)&_estack - (uint32_t)&_Min_Stack_Size;
 80026c0:	4a14      	ldr	r2, [pc, #80]	@ (8002714 <_sbrk+0x5c>)
 80026c2:	4b15      	ldr	r3, [pc, #84]	@ (8002718 <_sbrk+0x60>)
 80026c4:	1ad3      	subs	r3, r2, r3
 80026c6:	617b      	str	r3, [r7, #20]
  const uint8_t *max_heap = (uint8_t *)stack_limit;
 80026c8:	697b      	ldr	r3, [r7, #20]
 80026ca:	613b      	str	r3, [r7, #16]
  uint8_t *prev_heap_end;

  /* Initialize heap end at first call */
  if (NULL == __sbrk_heap_end)
 80026cc:	4b13      	ldr	r3, [pc, #76]	@ (800271c <_sbrk+0x64>)
 80026ce:	681b      	ldr	r3, [r3, #0]
 80026d0:	2b00      	cmp	r3, #0
 80026d2:	d102      	bne.n	80026da <_sbrk+0x22>
  {
    __sbrk_heap_end = &_end;
 80026d4:	4b11      	ldr	r3, [pc, #68]	@ (800271c <_sbrk+0x64>)
 80026d6:	4a12      	ldr	r2, [pc, #72]	@ (8002720 <_sbrk+0x68>)
 80026d8:	601a      	str	r2, [r3, #0]
  }

  /* Protect heap from growing into the reserved MSP stack */
  if (__sbrk_heap_end + incr > max_heap)
 80026da:	4b10      	ldr	r3, [pc, #64]	@ (800271c <_sbrk+0x64>)
 80026dc:	681a      	ldr	r2, [r3, #0]
 80026de:	687b      	ldr	r3, [r7, #4]
 80026e0:	4413      	add	r3, r2
 80026e2:	693a      	ldr	r2, [r7, #16]
 80026e4:	429a      	cmp	r2, r3
 80026e6:	d207      	bcs.n	80026f8 <_sbrk+0x40>
  {
    errno = ENOMEM;
 80026e8:	f000 f884 	bl	80027f4 <__errno>
 80026ec:	4603      	mov	r3, r0
 80026ee:	220c      	movs	r2, #12
 80026f0:	601a      	str	r2, [r3, #0]
    return (void *)-1;
 80026f2:	f04f 33ff 	mov.w	r3, #4294967295
 80026f6:	e009      	b.n	800270c <_sbrk+0x54>
  }

  prev_heap_end = __sbrk_heap_end;
 80026f8:	4b08      	ldr	r3, [pc, #32]	@ (800271c <_sbrk+0x64>)
 80026fa:	681b      	ldr	r3, [r3, #0]
 80026fc:	60fb      	str	r3, [r7, #12]
  __sbrk_heap_end += incr;
 80026fe:	4b07      	ldr	r3, [pc, #28]	@ (800271c <_sbrk+0x64>)
 8002700:	681a      	ldr	r2, [r3, #0]
 8002702:	687b      	ldr	r3, [r7, #4]
 8002704:	4413      	add	r3, r2
 8002706:	4a05      	ldr	r2, [pc, #20]	@ (800271c <_sbrk+0x64>)
 8002708:	6013      	str	r3, [r2, #0]

  return (void *)prev_heap_end;
 800270a:	68fb      	ldr	r3, [r7, #12]
}
 800270c:	4618      	mov	r0, r3
 800270e:	3718      	adds	r7, #24
 8002710:	46bd      	mov	sp, r7
 8002712:	bd80      	pop	{r7, pc}
 8002714:	20020000 	.word	0x20020000
 8002718:	00000400 	.word	0x00000400
 800271c:	2000098c 	.word	0x2000098c
 8002720:	20000ad8 	.word	0x20000ad8

08002724 <Reset_Handler>:

  .section .text.Reset_Handler
  .weak Reset_Handler
  .type Reset_Handler, %function
Reset_Handler:
  ldr   r0, =_estack
 8002724:	480d      	ldr	r0, [pc, #52]	@ (800275c <LoopForever+0x2>)
  mov   sp, r0          /* set stack pointer */
 8002726:	4685      	mov	sp, r0
/* Call the clock system initialization function.*/
  bl  SystemInit
 8002728:	f7fd fdba 	bl	80002a0 <SystemInit>

/* Copy the data segment initializers from flash to SRAM */
  ldr r0, =_sdata
 800272c:	480c      	ldr	r0, [pc, #48]	@ (8002760 <LoopForever+0x6>)
  ldr r1, =_edata
 800272e:	490d      	ldr	r1, [pc, #52]	@ (8002764 <LoopForever+0xa>)
  ldr r2, =_sidata
 8002730:	4a0d      	ldr	r2, [pc, #52]	@ (8002768 <LoopForever+0xe>)
  movs r3, #0
 8002732:	2300      	movs	r3, #0
  b LoopCopyDataInit
 8002734:	e002      	b.n	800273c <LoopCopyDataInit>

08002736 <CopyDataInit>:

CopyDataInit:
  ldr r4, [r2, r3]
 8002736:	58d4      	ldr	r4, [r2, r3]
  str r4, [r0, r3]
 8002738:	50c4      	str	r4, [r0, r3]
  adds r3, r3, #4
 800273a:	3304      	adds	r3, #4

0800273c <LoopCopyDataInit>:

LoopCopyDataInit:
  adds r4, r0, r3
 800273c:	18c4      	adds	r4, r0, r3
  cmp r4, r1
 800273e:	428c      	cmp	r4, r1
  bcc CopyDataInit
 8002740:	d3f9      	bcc.n	8002736 <CopyDataInit>

/* Zero fill the bss segment. */
  ldr r2, =_sbss
 8002742:	4a0a      	ldr	r2, [pc, #40]	@ (800276c <LoopForever+0x12>)
  ldr r4, =_ebss
 8002744:	4c0a      	ldr	r4, [pc, #40]	@ (8002770 <LoopForever+0x16>)
  movs r3, #0
 8002746:	2300      	movs	r3, #0
  b LoopFillZerobss
 8002748:	e001      	b.n	800274e <LoopFillZerobss>

0800274a <FillZerobss>:

FillZerobss:
  str  r3, [r2]
 800274a:	6013      	str	r3, [r2, #0]
  adds r2, r2, #4
 800274c:	3204      	adds	r2, #4

0800274e <LoopFillZerobss>:

LoopFillZerobss:
  cmp r2, r4
 800274e:	42a2      	cmp	r2, r4
  bcc FillZerobss
 8002750:	d3fb      	bcc.n	800274a <FillZerobss>


/* Call static constructors */
  bl __libc_init_array
 8002752:	f000 f855 	bl	8002800 <__libc_init_array>
/* Call the application's entry point.*/

  bl main
 8002756:	f7ff fdd7 	bl	8002308 <main>

0800275a <LoopForever>:

LoopForever:
  b LoopForever
 800275a:	e7fe      	b.n	800275a <LoopForever>
  ldr   r0, =_estack
 800275c:	20020000 	.word	0x20020000
  ldr r0, =_sdata
 8002760:	20000000 	.word	0x20000000
  ldr r1, =_edata
 8002764:	20000070 	.word	0x20000070
  ldr r2, =_sidata
 8002768:	08003a14 	.word	0x08003a14
  ldr r2, =_sbss
 800276c:	20000070 	.word	0x20000070
  ldr r4, =_ebss
 8002770:	20000ad8 	.word	0x20000ad8

08002774 <ADC_IRQHandler>:
 * @retval : None
*/
  .section .text.Default_Handler,"ax",%progbits
Default_Handler:
Infinite_Loop:
  b Infinite_Loop
 8002774:	e7fe      	b.n	8002774 <ADC_IRQHandler>
	...

08002778 <sniprintf>:
 8002778:	b40c      	push	{r2, r3}
 800277a:	b530      	push	{r4, r5, lr}
 800277c:	4b18      	ldr	r3, [pc, #96]	@ (80027e0 <sniprintf+0x68>)
 800277e:	1e0c      	subs	r4, r1, #0
 8002780:	681d      	ldr	r5, [r3, #0]
 8002782:	b09d      	sub	sp, #116	@ 0x74
 8002784:	da08      	bge.n	8002798 <sniprintf+0x20>
 8002786:	238b      	movs	r3, #139	@ 0x8b
 8002788:	602b      	str	r3, [r5, #0]
 800278a:	f04f 30ff 	mov.w	r0, #4294967295
 800278e:	b01d      	add	sp, #116	@ 0x74
 8002790:	e8bd 4030 	ldmia.w	sp!, {r4, r5, lr}
 8002794:	b002      	add	sp, #8
 8002796:	4770      	bx	lr
 8002798:	f44f 7302 	mov.w	r3, #520	@ 0x208
 800279c:	f8ad 3014 	strh.w	r3, [sp, #20]
 80027a0:	f04f 0300 	mov.w	r3, #0
 80027a4:	931b      	str	r3, [sp, #108]	@ 0x6c
 80027a6:	bf14      	ite	ne
 80027a8:	f104 33ff 	addne.w	r3, r4, #4294967295
 80027ac:	4623      	moveq	r3, r4
 80027ae:	9304      	str	r3, [sp, #16]
 80027b0:	9307      	str	r3, [sp, #28]
 80027b2:	f64f 73ff 	movw	r3, #65535	@ 0xffff
 80027b6:	9002      	str	r0, [sp, #8]
 80027b8:	9006      	str	r0, [sp, #24]
 80027ba:	f8ad 3016 	strh.w	r3, [sp, #22]
 80027be:	9a20      	ldr	r2, [sp, #128]	@ 0x80
 80027c0:	ab21      	add	r3, sp, #132	@ 0x84
 80027c2:	a902      	add	r1, sp, #8
 80027c4:	4628      	mov	r0, r5
 80027c6:	9301      	str	r3, [sp, #4]
 80027c8:	f000 f9a6 	bl	8002b18 <_svfiprintf_r>
 80027cc:	1c43      	adds	r3, r0, #1
 80027ce:	bfbc      	itt	lt
 80027d0:	238b      	movlt	r3, #139	@ 0x8b
 80027d2:	602b      	strlt	r3, [r5, #0]
 80027d4:	2c00      	cmp	r4, #0
 80027d6:	d0da      	beq.n	800278e <sniprintf+0x16>
 80027d8:	9b02      	ldr	r3, [sp, #8]
 80027da:	2200      	movs	r2, #0
 80027dc:	701a      	strb	r2, [r3, #0]
 80027de:	e7d6      	b.n	800278e <sniprintf+0x16>
 80027e0:	20000020 	.word	0x20000020

080027e4 <memset>:
 80027e4:	4402      	add	r2, r0
 80027e6:	4603      	mov	r3, r0
 80027e8:	4293      	cmp	r3, r2
 80027ea:	d100      	bne.n	80027ee <memset+0xa>
 80027ec:	4770      	bx	lr
 80027ee:	f803 1b01 	strb.w	r1, [r3], #1
 80027f2:	e7f9      	b.n	80027e8 <memset+0x4>

080027f4 <__errno>:
 80027f4:	4b01      	ldr	r3, [pc, #4]	@ (80027fc <__errno+0x8>)
 80027f6:	6818      	ldr	r0, [r3, #0]
 80027f8:	4770      	bx	lr
 80027fa:	bf00      	nop
 80027fc:	20000020 	.word	0x20000020

08002800 <__libc_init_array>:
 8002800:	b570      	push	{r4, r5, r6, lr}
 8002802:	4b0d      	ldr	r3, [pc, #52]	@ (8002838 <__libc_init_array+0x38>)
 8002804:	4d0d      	ldr	r5, [pc, #52]	@ (800283c <__libc_init_array+0x3c>)
 8002806:	1b5b      	subs	r3, r3, r5
 8002808:	109c      	asrs	r4, r3, #2
 800280a:	2600      	movs	r6, #0
 800280c:	42a6      	cmp	r6, r4
 800280e:	d109      	bne.n	8002824 <__libc_init_array+0x24>
 8002810:	f000 fc6e 	bl	80030f0 <_init>
 8002814:	4d0a      	ldr	r5, [pc, #40]	@ (8002840 <__libc_init_array+0x40>)
 8002816:	4b0b      	ldr	r3, [pc, #44]	@ (8002844 <__libc_init_array+0x44>)
 8002818:	1b5b      	subs	r3, r3, r5
 800281a:	109c      	asrs	r4, r3, #2
 800281c:	2600      	movs	r6, #0
 800281e:	42a6      	cmp	r6, r4
 8002820:	d105      	bne.n	800282e <__libc_init_array+0x2e>
 8002822:	bd70      	pop	{r4, r5, r6, pc}
 8002824:	f855 3b04 	ldr.w	r3, [r5], #4
 8002828:	4798      	blx	r3
 800282a:	3601      	adds	r6, #1
 800282c:	e7ee      	b.n	800280c <__libc_init_array+0xc>
 800282e:	f855 3b04 	ldr.w	r3, [r5], #4
 8002832:	4798      	blx	r3
 8002834:	3601      	adds	r6, #1
 8002836:	e7f2      	b.n	800281e <__libc_init_array+0x1e>
 8002838:	08003a0c 	.word	0x08003a0c
 800283c:	08003a0c 	.word	0x08003a0c
 8002840:	08003a0c 	.word	0x08003a0c
 8002844:	08003a10 	.word	0x08003a10

08002848 <__retarget_lock_acquire_recursive>:
 8002848:	4770      	bx	lr

0800284a <__retarget_lock_release_recursive>:
 800284a:	4770      	bx	lr

0800284c <memcpy>:
 800284c:	440a      	add	r2, r1
 800284e:	4291      	cmp	r1, r2
 8002850:	f100 33ff 	add.w	r3, r0, #4294967295
 8002854:	d100      	bne.n	8002858 <memcpy+0xc>
 8002856:	4770      	bx	lr
 8002858:	b510      	push	{r4, lr}
 800285a:	f811 4b01 	ldrb.w	r4, [r1], #1
 800285e:	f803 4f01 	strb.w	r4, [r3, #1]!
 8002862:	4291      	cmp	r1, r2
 8002864:	d1f9      	bne.n	800285a <memcpy+0xe>
 8002866:	bd10      	pop	{r4, pc}

08002868 <_free_r>:
 8002868:	b538      	push	{r3, r4, r5, lr}
 800286a:	4605      	mov	r5, r0
 800286c:	2900      	cmp	r1, #0
 800286e:	d041      	beq.n	80028f4 <_free_r+0x8c>
 8002870:	f851 3c04 	ldr.w	r3, [r1, #-4]
 8002874:	1f0c      	subs	r4, r1, #4
 8002876:	2b00      	cmp	r3, #0
 8002878:	bfb8      	it	lt
 800287a:	18e4      	addlt	r4, r4, r3
 800287c:	f000 f8e0 	bl	8002a40 <__malloc_lock>
 8002880:	4a1d      	ldr	r2, [pc, #116]	@ (80028f8 <_free_r+0x90>)
 8002882:	6813      	ldr	r3, [r2, #0]
 8002884:	b933      	cbnz	r3, 8002894 <_free_r+0x2c>
 8002886:	6063      	str	r3, [r4, #4]
 8002888:	6014      	str	r4, [r2, #0]
 800288a:	4628      	mov	r0, r5
 800288c:	e8bd 4038 	ldmia.w	sp!, {r3, r4, r5, lr}
 8002890:	f000 b8dc 	b.w	8002a4c <__malloc_unlock>
 8002894:	42a3      	cmp	r3, r4
 8002896:	d908      	bls.n	80028aa <_free_r+0x42>
 8002898:	6820      	ldr	r0, [r4, #0]
 800289a:	1821      	adds	r1, r4, r0
 800289c:	428b      	cmp	r3, r1
 800289e:	bf01      	itttt	eq
 80028a0:	6819      	ldreq	r1, [r3, #0]
 80028a2:	685b      	ldreq	r3, [r3, #4]
 80028a4:	1809      	addeq	r1, r1, r0
 80028a6:	6021      	streq	r1, [r4, #0]
 80028a8:	e7ed      	b.n	8002886 <_free_r+0x1e>
 80028aa:	461a      	mov	r2, r3
 80028ac:	685b      	ldr	r3, [r3, #4]
 80028ae:	b10b      	cbz	r3, 80028b4 <_free_r+0x4c>
 80028b0:	42a3      	cmp	r3, r4
 80028b2:	d9fa      	bls.n	80028aa <_free_r+0x42>
 80028b4:	6811      	ldr	r1, [r2, #0]
 80028b6:	1850      	adds	r0, r2, r1
 80028b8:	42a0      	cmp	r0, r4
 80028ba:	d10b      	bne.n	80028d4 <_free_r+0x6c>
 80028bc:	6820      	ldr	r0, [r4, #0]
 80028be:	4401      	add	r1, r0
 80028c0:	1850      	adds	r0, r2, r1
 80028c2:	4283      	cmp	r3, r0
 80028c4:	6011      	str	r1, [r2, #0]
 80028c6:	d1e0      	bne.n	800288a <_free_r+0x22>
 80028c8:	6818      	ldr	r0, [r3, #0]
 80028ca:	685b      	ldr	r3, [r3, #4]
 80028cc:	6053      	str	r3, [r2, #4]
 80028ce:	4408      	add	r0, r1
 80028d0:	6010      	str	r0, [r2, #0]
 80028d2:	e7da      	b.n	800288a <_free_r+0x22>
 80028d4:	d902      	bls.n	80028dc <_free_r+0x74>
 80028d6:	230c      	movs	r3, #12
 80028d8:	602b      	str	r3, [r5, #0]
 80028da:	e7d6      	b.n	800288a <_free_r+0x22>
 80028dc:	6820      	ldr	r0, [r4, #0]
 80028de:	1821      	adds	r1, r4, r0
 80028e0:	428b      	cmp	r3, r1
 80028e2:	bf04      	itt	eq
 80028e4:	6819      	ldreq	r1, [r3, #0]
 80028e6:	685b      	ldreq	r3, [r3, #4]
 80028e8:	6063      	str	r3, [r4, #4]
 80028ea:	bf04      	itt	eq
 80028ec:	1809      	addeq	r1, r1, r0
 80028ee:	6021      	streq	r1, [r4, #0]
 80028f0:	6054      	str	r4, [r2, #4]
 80028f2:	e7ca      	b.n	800288a <_free_r+0x22>
 80028f4:	bd38      	pop	{r3, r4, r5, pc}
 80028f6:	bf00      	nop
 80028f8:	20000ad4 	.word	0x20000ad4

080028fc <sbrk_aligned>:
 80028fc:	b570      	push	{r4, r5, r6, lr}
 80028fe:	4e0f      	ldr	r6, [pc, #60]	@ (800293c <sbrk_aligned+0x40>)
 8002900:	460c      	mov	r4, r1
 8002902:	6831      	ldr	r1, [r6, #0]
 8002904:	4605      	mov	r5, r0
 8002906:	b911      	cbnz	r1, 800290e <sbrk_aligned+0x12>
 8002908:	f000 fbac 	bl	8003064 <_sbrk_r>
 800290c:	6030      	str	r0, [r6, #0]
 800290e:	4621      	mov	r1, r4
 8002910:	4628      	mov	r0, r5
 8002912:	f000 fba7 	bl	8003064 <_sbrk_r>
 8002916:	1c43      	adds	r3, r0, #1
 8002918:	d103      	bne.n	8002922 <sbrk_aligned+0x26>
 800291a:	f04f 34ff 	mov.w	r4, #4294967295
 800291e:	4620      	mov	r0, r4
 8002920:	bd70      	pop	{r4, r5, r6, pc}
 8002922:	1cc4      	adds	r4, r0, #3
 8002924:	f024 0403 	bic.w	r4, r4, #3
 8002928:	42a0      	cmp	r0, r4
 800292a:	d0f8      	beq.n	800291e <sbrk_aligned+0x22>
 800292c:	1a21      	subs	r1, r4, r0
 800292e:	4628      	mov	r0, r5
 8002930:	f000 fb98 	bl	8003064 <_sbrk_r>
 8002934:	3001      	adds	r0, #1
 8002936:	d1f2      	bne.n	800291e <sbrk_aligned+0x22>
 8002938:	e7ef      	b.n	800291a <sbrk_aligned+0x1e>
 800293a:	bf00      	nop
 800293c:	20000ad0 	.word	0x20000ad0

08002940 <_malloc_r>:
 8002940:	e92d 43f8 	stmdb	sp!, {r3, r4, r5, r6, r7, r8, r9, lr}
 8002944:	1ccd      	adds	r5, r1, #3
 8002946:	f025 0503 	bic.w	r5, r5, #3
 800294a:	3508      	adds	r5, #8
 800294c:	2d0c      	cmp	r5, #12
 800294e:	bf38      	it	cc
 8002950:	250c      	movcc	r5, #12
 8002952:	2d00      	cmp	r5, #0
 8002954:	4606      	mov	r6, r0
 8002956:	db01      	blt.n	800295c <_malloc_r+0x1c>
 8002958:	42a9      	cmp	r1, r5
 800295a:	d904      	bls.n	8002966 <_malloc_r+0x26>
 800295c:	230c      	movs	r3, #12
 800295e:	6033      	str	r3, [r6, #0]
 8002960:	2000      	movs	r0, #0
 8002962:	e8bd 83f8 	ldmia.w	sp!, {r3, r4, r5, r6, r7, r8, r9, pc}
 8002966:	f8df 80d4 	ldr.w	r8, [pc, #212]	@ 8002a3c <_malloc_r+0xfc>
 800296a:	f000 f869 	bl	8002a40 <__malloc_lock>
 800296e:	f8d8 3000 	ldr.w	r3, [r8]
 8002972:	461c      	mov	r4, r3
 8002974:	bb44      	cbnz	r4, 80029c8 <_malloc_r+0x88>
 8002976:	4629      	mov	r1, r5
 8002978:	4630      	mov	r0, r6
 800297a:	f7ff ffbf 	bl	80028fc <sbrk_aligned>
 800297e:	1c43      	adds	r3, r0, #1
 8002980:	4604      	mov	r4, r0
 8002982:	d158      	bne.n	8002a36 <_malloc_r+0xf6>
 8002984:	f8d8 4000 	ldr.w	r4, [r8]
 8002988:	4627      	mov	r7, r4
 800298a:	2f00      	cmp	r7, #0
 800298c:	d143      	bne.n	8002a16 <_malloc_r+0xd6>
 800298e:	2c00      	cmp	r4, #0
 8002990:	d04b      	beq.n	8002a2a <_malloc_r+0xea>
 8002992:	6823      	ldr	r3, [r4, #0]
 8002994:	4639      	mov	r1, r7
 8002996:	4630      	mov	r0, r6
 8002998:	eb04 0903 	add.w	r9, r4, r3
 800299c:	f000 fb62 	bl	8003064 <_sbrk_r>
 80029a0:	4581      	cmp	r9, r0
 80029a2:	d142      	bne.n	8002a2a <_malloc_r+0xea>
 80029a4:	6821      	ldr	r1, [r4, #0]
 80029a6:	1a6d      	subs	r5, r5, r1
 80029a8:	4629      	mov	r1, r5
 80029aa:	4630      	mov	r0, r6
 80029ac:	f7ff ffa6 	bl	80028fc <sbrk_aligned>
 80029b0:	3001      	adds	r0, #1
 80029b2:	d03a      	beq.n	8002a2a <_malloc_r+0xea>
 80029b4:	6823      	ldr	r3, [r4, #0]
 80029b6:	442b      	add	r3, r5
 80029b8:	6023      	str	r3, [r4, #0]
 80029ba:	f8d8 3000 	ldr.w	r3, [r8]
 80029be:	685a      	ldr	r2, [r3, #4]
 80029c0:	bb62      	cbnz	r2, 8002a1c <_malloc_r+0xdc>
 80029c2:	f8c8 7000 	str.w	r7, [r8]
 80029c6:	e00f      	b.n	80029e8 <_malloc_r+0xa8>
 80029c8:	6822      	ldr	r2, [r4, #0]
 80029ca:	1b52      	subs	r2, r2, r5
 80029cc:	d420      	bmi.n	8002a10 <_malloc_r+0xd0>
 80029ce:	2a0b      	cmp	r2, #11
 80029d0:	d917      	bls.n	8002a02 <_malloc_r+0xc2>
 80029d2:	1961      	adds	r1, r4, r5
 80029d4:	42a3      	cmp	r3, r4
 80029d6:	6025      	str	r5, [r4, #0]
 80029d8:	bf18      	it	ne
 80029da:	6059      	strne	r1, [r3, #4]
 80029dc:	6863      	ldr	r3, [r4, #4]
 80029de:	bf08      	it	eq
 80029e0:	f8c8 1000 	streq.w	r1, [r8]
 80029e4:	5162      	str	r2, [r4, r5]
 80029e6:	604b      	str	r3, [r1, #4]
 80029e8:	4630      	mov	r0, r6
 80029ea:	f000 f82f 	bl	8002a4c <__malloc_unlock>
 80029ee:	f104 000b 	add.w	r0, r4, #11
 80029f2:	1d23      	adds	r3, r4, #4
 80029f4:	f020 0007 	bic.w	r0, r0, #7
 80029f8:	1ac2      	subs	r2, r0, r3
 80029fa:	bf1c      	itt	ne
 80029fc:	1a1b      	subne	r3, r3, r0
 80029fe:	50a3      	strne	r3, [r4, r2]
 8002a00:	e7af      	b.n	8002962 <_malloc_r+0x22>
 8002a02:	6862      	ldr	r2, [r4, #4]
 8002a04:	42a3      	cmp	r3, r4
 8002a06:	bf0c      	ite	eq
 8002a08:	f8c8 2000 	streq.w	r2, [r8]
 8002a0c:	605a      	strne	r2, [r3, #4]
 8002a0e:	e7eb      	b.n	80029e8 <_malloc_r+0xa8>
 8002a10:	4623      	mov	r3, r4
 8002a12:	6864      	ldr	r4, [r4, #4]
 8002a14:	e7ae      	b.n	8002974 <_malloc_r+0x34>
 8002a16:	463c      	mov	r4, r7
 8002a18:	687f      	ldr	r7, [r7, #4]
 8002a1a:	e7b6      	b.n	800298a <_malloc_r+0x4a>
 8002a1c:	461a      	mov	r2, r3
 8002a1e:	685b      	ldr	r3, [r3, #4]
 8002a20:	42a3      	cmp	r3, r4
 8002a22:	d1fb      	bne.n	8002a1c <_malloc_r+0xdc>
 8002a24:	2300      	movs	r3, #0
 8002a26:	6053      	str	r3, [r2, #4]
 8002a28:	e7de      	b.n	80029e8 <_malloc_r+0xa8>
 8002a2a:	230c      	movs	r3, #12
 8002a2c:	6033      	str	r3, [r6, #0]
 8002a2e:	4630      	mov	r0, r6
 8002a30:	f000 f80c 	bl	8002a4c <__malloc_unlock>
 8002a34:	e794      	b.n	8002960 <_malloc_r+0x20>
 8002a36:	6005      	str	r5, [r0, #0]
 8002a38:	e7d6      	b.n	80029e8 <_malloc_r+0xa8>
 8002a3a:	bf00      	nop
 8002a3c:	20000ad4 	.word	0x20000ad4

08002a40 <__malloc_lock>:
 8002a40:	4801      	ldr	r0, [pc, #4]	@ (8002a48 <__malloc_lock+0x8>)
 8002a42:	f7ff bf01 	b.w	8002848 <__retarget_lock_acquire_recursive>
 8002a46:	bf00      	nop
 8002a48:	20000acc 	.word	0x20000acc

08002a4c <__malloc_unlock>:
 8002a4c:	4801      	ldr	r0, [pc, #4]	@ (8002a54 <__malloc_unlock+0x8>)
 8002a4e:	f7ff befc 	b.w	800284a <__retarget_lock_release_recursive>
 8002a52:	bf00      	nop
 8002a54:	20000acc 	.word	0x20000acc

08002a58 <__ssputs_r>:
 8002a58:	e92d 47f0 	stmdb	sp!, {r4, r5, r6, r7, r8, r9, sl, lr}
 8002a5c:	688e      	ldr	r6, [r1, #8]
 8002a5e:	461f      	mov	r7, r3
 8002a60:	42be      	cmp	r6, r7
 8002a62:	4682      	mov	sl, r0
 8002a64:	460c      	mov	r4, r1
 8002a66:	4690      	mov	r8, r2
 8002a68:	4633      	mov	r3, r6
 8002a6a:	d853      	bhi.n	8002b14 <__ssputs_r+0xbc>
 8002a6c:	f9b1 000c 	ldrsh.w	r0, [r1, #12]
 8002a70:	f410 6f90 	tst.w	r0, #1152	@ 0x480
 8002a74:	d02b      	beq.n	8002ace <__ssputs_r+0x76>
 8002a76:	6965      	ldr	r5, [r4, #20]
 8002a78:	6823      	ldr	r3, [r4, #0]
 8002a7a:	6909      	ldr	r1, [r1, #16]
 8002a7c:	eb05 0545 	add.w	r5, r5, r5, lsl #1
 8002a80:	eba3 0901 	sub.w	r9, r3, r1
 8002a84:	eb05 75d5 	add.w	r5, r5, r5, lsr #31
 8002a88:	1c7b      	adds	r3, r7, #1
 8002a8a:	106d      	asrs	r5, r5, #1
 8002a8c:	444b      	add	r3, r9
 8002a8e:	42ab      	cmp	r3, r5
 8002a90:	462a      	mov	r2, r5
 8002a92:	bf84      	itt	hi
 8002a94:	461d      	movhi	r5, r3
 8002a96:	462a      	movhi	r2, r5
 8002a98:	0543      	lsls	r3, r0, #21
 8002a9a:	d527      	bpl.n	8002aec <__ssputs_r+0x94>
 8002a9c:	4611      	mov	r1, r2
 8002a9e:	4650      	mov	r0, sl
 8002aa0:	f7ff ff4e 	bl	8002940 <_malloc_r>
 8002aa4:	4606      	mov	r6, r0
 8002aa6:	b358      	cbz	r0, 8002b00 <__ssputs_r+0xa8>
 8002aa8:	6921      	ldr	r1, [r4, #16]
 8002aaa:	464a      	mov	r2, r9
 8002aac:	f7ff fece 	bl	800284c <memcpy>
 8002ab0:	89a3      	ldrh	r3, [r4, #12]
 8002ab2:	f423 6390 	bic.w	r3, r3, #1152	@ 0x480
 8002ab6:	f043 0380 	orr.w	r3, r3, #128	@ 0x80
 8002aba:	81a3      	strh	r3, [r4, #12]
 8002abc:	6126      	str	r6, [r4, #16]
 8002abe:	6165      	str	r5, [r4, #20]
 8002ac0:	444e      	add	r6, r9
 8002ac2:	eba5 0509 	sub.w	r5, r5, r9
 8002ac6:	6026      	str	r6, [r4, #0]
 8002ac8:	60a5      	str	r5, [r4, #8]
 8002aca:	463e      	mov	r6, r7
 8002acc:	463b      	mov	r3, r7
 8002ace:	461f      	mov	r7, r3
 8002ad0:	6820      	ldr	r0, [r4, #0]
 8002ad2:	463a      	mov	r2, r7
 8002ad4:	4641      	mov	r1, r8
 8002ad6:	f000 faab 	bl	8003030 <memmove>
 8002ada:	68a3      	ldr	r3, [r4, #8]
 8002adc:	1b9b      	subs	r3, r3, r6
 8002ade:	60a3      	str	r3, [r4, #8]
 8002ae0:	6823      	ldr	r3, [r4, #0]
 8002ae2:	443b      	add	r3, r7
 8002ae4:	6023      	str	r3, [r4, #0]
 8002ae6:	2000      	movs	r0, #0
 8002ae8:	e8bd 87f0 	ldmia.w	sp!, {r4, r5, r6, r7, r8, r9, sl, pc}
 8002aec:	4650      	mov	r0, sl
 8002aee:	f000 fac9 	bl	8003084 <_realloc_r>
 8002af2:	4606      	mov	r6, r0
 8002af4:	2800      	cmp	r0, #0
 8002af6:	d1e1      	bne.n	8002abc <__ssputs_r+0x64>
 8002af8:	6921      	ldr	r1, [r4, #16]
 8002afa:	4650      	mov	r0, sl
 8002afc:	f7ff feb4 	bl	8002868 <_free_r>
 8002b00:	230c      	movs	r3, #12
 8002b02:	f8ca 3000 	str.w	r3, [sl]
 8002b06:	89a3      	ldrh	r3, [r4, #12]
 8002b08:	f043 0340 	orr.w	r3, r3, #64	@ 0x40
 8002b0c:	81a3      	strh	r3, [r4, #12]
 8002b0e:	f04f 30ff 	mov.w	r0, #4294967295
 8002b12:	e7e9      	b.n	8002ae8 <__ssputs_r+0x90>
 8002b14:	463e      	mov	r6, r7
 8002b16:	e7db      	b.n	8002ad0 <__ssputs_r+0x78>

08002b18 <_svfiprintf_r>:
 8002b18:	e92d 47f0 	stmdb	sp!, {r4, r5, r6, r7, r8, r9, sl, lr}
 8002b1c:	461f      	mov	r7, r3
 8002b1e:	898b      	ldrh	r3, [r1, #12]
 8002b20:	061b      	lsls	r3, r3, #24
 8002b22:	b09c      	sub	sp, #112	@ 0x70
 8002b24:	4606      	mov	r6, r0
 8002b26:	460d      	mov	r5, r1
 8002b28:	4614      	mov	r4, r2
 8002b2a:	d510      	bpl.n	8002b4e <_svfiprintf_r+0x36>
 8002b2c:	690b      	ldr	r3, [r1, #16]
 8002b2e:	b973      	cbnz	r3, 8002b4e <_svfiprintf_r+0x36>
 8002b30:	2140      	movs	r1, #64	@ 0x40
 8002b32:	f7ff ff05 	bl	8002940 <_malloc_r>
 8002b36:	6028      	str	r0, [r5, #0]
 8002b38:	6128      	str	r0, [r5, #16]
 8002b3a:	b930      	cbnz	r0, 8002b4a <_svfiprintf_r+0x32>
 8002b3c:	230c      	movs	r3, #12
 8002b3e:	6033      	str	r3, [r6, #0]
 8002b40:	f04f 30ff 	mov.w	r0, #4294967295
 8002b44:	b01c      	add	sp, #112	@ 0x70
 8002b46:	e8bd 87f0 	ldmia.w	sp!, {r4, r5, r6, r7, r8, r9, sl, pc}
 8002b4a:	2340      	movs	r3, #64	@ 0x40
 8002b4c:	616b      	str	r3, [r5, #20]
 8002b4e:	2300      	movs	r3, #0
 8002b50:	9309      	str	r3, [sp, #36]	@ 0x24
 8002b52:	2320      	movs	r3, #32
 8002b54:	f88d 3029 	strb.w	r3, [sp, #41]	@ 0x29
 8002b58:	9703      	str	r7, [sp, #12]
 8002b5a:	2330      	movs	r3, #48	@ 0x30
 8002b5c:	4f65      	ldr	r7, [pc, #404]	@ (8002cf4 <_svfiprintf_r+0x1dc>)
 8002b5e:	f88d 302a 	strb.w	r3, [sp, #42]	@ 0x2a
 8002b62:	f04f 0801 	mov.w	r8, #1
 8002b66:	4623      	mov	r3, r4
 8002b68:	4699      	mov	r9, r3
 8002b6a:	f813 2b01 	ldrb.w	r2, [r3], #1
 8002b6e:	b10a      	cbz	r2, 8002b74 <_svfiprintf_r+0x5c>
 8002b70:	2a25      	cmp	r2, #37	@ 0x25
 8002b72:	d1f9      	bne.n	8002b68 <_svfiprintf_r+0x50>
 8002b74:	ebb9 0a04 	subs.w	sl, r9, r4
 8002b78:	d00b      	beq.n	8002b92 <_svfiprintf_r+0x7a>
 8002b7a:	4653      	mov	r3, sl
 8002b7c:	4622      	mov	r2, r4
 8002b7e:	4629      	mov	r1, r5
 8002b80:	4630      	mov	r0, r6
 8002b82:	f7ff ff69 	bl	8002a58 <__ssputs_r>
 8002b86:	3001      	adds	r0, #1
 8002b88:	f000 80a4 	beq.w	8002cd4 <_svfiprintf_r+0x1bc>
 8002b8c:	9a09      	ldr	r2, [sp, #36]	@ 0x24
 8002b8e:	4452      	add	r2, sl
 8002b90:	9209      	str	r2, [sp, #36]	@ 0x24
 8002b92:	f899 3000 	ldrb.w	r3, [r9]
 8002b96:	2b00      	cmp	r3, #0
 8002b98:	f000 809c 	beq.w	8002cd4 <_svfiprintf_r+0x1bc>
 8002b9c:	2300      	movs	r3, #0
 8002b9e:	f04f 32ff 	mov.w	r2, #4294967295
 8002ba2:	e9cd 2305 	strd	r2, r3, [sp, #20]
 8002ba6:	f109 0901 	add.w	r9, r9, #1
 8002baa:	9304      	str	r3, [sp, #16]
 8002bac:	9307      	str	r3, [sp, #28]
 8002bae:	f88d 3053 	strb.w	r3, [sp, #83]	@ 0x53
 8002bb2:	931a      	str	r3, [sp, #104]	@ 0x68
 8002bb4:	464c      	mov	r4, r9
 8002bb6:	484f      	ldr	r0, [pc, #316]	@ (8002cf4 <_svfiprintf_r+0x1dc>)
 8002bb8:	f814 1b01 	ldrb.w	r1, [r4], #1
 8002bbc:	2205      	movs	r2, #5
 8002bbe:	f7fd fb1f 	bl	8000200 <memchr>
 8002bc2:	9b04      	ldr	r3, [sp, #16]
 8002bc4:	b9d0      	cbnz	r0, 8002bfc <_svfiprintf_r+0xe4>
 8002bc6:	06d8      	lsls	r0, r3, #27
 8002bc8:	bf44      	itt	mi
 8002bca:	2220      	movmi	r2, #32
 8002bcc:	f88d 2053 	strbmi.w	r2, [sp, #83]	@ 0x53
 8002bd0:	0719      	lsls	r1, r3, #28
 8002bd2:	bf44      	itt	mi
 8002bd4:	222b      	movmi	r2, #43	@ 0x2b
 8002bd6:	f88d 2053 	strbmi.w	r2, [sp, #83]	@ 0x53
 8002bda:	f899 2000 	ldrb.w	r2, [r9]
 8002bde:	2a2a      	cmp	r2, #42	@ 0x2a
 8002be0:	d013      	beq.n	8002c0a <_svfiprintf_r+0xf2>
 8002be2:	9a07      	ldr	r2, [sp, #28]
 8002be4:	464c      	mov	r4, r9
 8002be6:	2000      	movs	r0, #0
 8002be8:	f04f 0c0a 	mov.w	ip, #10
 8002bec:	4621      	mov	r1, r4
 8002bee:	f811 3b01 	ldrb.w	r3, [r1], #1
 8002bf2:	3b30      	subs	r3, #48	@ 0x30
 8002bf4:	2b09      	cmp	r3, #9
 8002bf6:	d949      	bls.n	8002c8c <_svfiprintf_r+0x174>
 8002bf8:	b968      	cbnz	r0, 8002c16 <_svfiprintf_r+0xfe>
 8002bfa:	e013      	b.n	8002c24 <_svfiprintf_r+0x10c>
 8002bfc:	1bc0      	subs	r0, r0, r7
 8002bfe:	fa08 f000 	lsl.w	r0, r8, r0
 8002c02:	4318      	orrs	r0, r3
 8002c04:	9004      	str	r0, [sp, #16]
 8002c06:	46a1      	mov	r9, r4
 8002c08:	e7d4      	b.n	8002bb4 <_svfiprintf_r+0x9c>
 8002c0a:	9a03      	ldr	r2, [sp, #12]
 8002c0c:	1d11      	adds	r1, r2, #4
 8002c0e:	6812      	ldr	r2, [r2, #0]
 8002c10:	9103      	str	r1, [sp, #12]
 8002c12:	2a00      	cmp	r2, #0
 8002c14:	db01      	blt.n	8002c1a <_svfiprintf_r+0x102>
 8002c16:	9207      	str	r2, [sp, #28]
 8002c18:	e004      	b.n	8002c24 <_svfiprintf_r+0x10c>
 8002c1a:	4252      	negs	r2, r2
 8002c1c:	f043 0302 	orr.w	r3, r3, #2
 8002c20:	9207      	str	r2, [sp, #28]
 8002c22:	9304      	str	r3, [sp, #16]
 8002c24:	7823      	ldrb	r3, [r4, #0]
 8002c26:	2b2e      	cmp	r3, #46	@ 0x2e
 8002c28:	d10a      	bne.n	8002c40 <_svfiprintf_r+0x128>
 8002c2a:	7863      	ldrb	r3, [r4, #1]
 8002c2c:	2b2a      	cmp	r3, #42	@ 0x2a
 8002c2e:	d132      	bne.n	8002c96 <_svfiprintf_r+0x17e>
 8002c30:	9b03      	ldr	r3, [sp, #12]
 8002c32:	1d1a      	adds	r2, r3, #4
 8002c34:	681b      	ldr	r3, [r3, #0]
 8002c36:	9203      	str	r2, [sp, #12]
 8002c38:	ea43 73e3 	orr.w	r3, r3, r3, asr #31
 8002c3c:	3402      	adds	r4, #2
 8002c3e:	9305      	str	r3, [sp, #20]
 8002c40:	f8df 90c0 	ldr.w	r9, [pc, #192]	@ 8002d04 <_svfiprintf_r+0x1ec>
 8002c44:	7821      	ldrb	r1, [r4, #0]
 8002c46:	2203      	movs	r2, #3
 8002c48:	4648      	mov	r0, r9
 8002c4a:	f7fd fad9 	bl	8000200 <memchr>
 8002c4e:	b138      	cbz	r0, 8002c60 <_svfiprintf_r+0x148>
 8002c50:	9b04      	ldr	r3, [sp, #16]
 8002c52:	eba0 0009 	sub.w	r0, r0, r9
 8002c56:	2240      	movs	r2, #64	@ 0x40
 8002c58:	4082      	lsls	r2, r0
 8002c5a:	4313      	orrs	r3, r2
 8002c5c:	3401      	adds	r4, #1
 8002c5e:	9304      	str	r3, [sp, #16]
 8002c60:	f814 1b01 	ldrb.w	r1, [r4], #1
 8002c64:	4824      	ldr	r0, [pc, #144]	@ (8002cf8 <_svfiprintf_r+0x1e0>)
 8002c66:	f88d 1028 	strb.w	r1, [sp, #40]	@ 0x28
 8002c6a:	2206      	movs	r2, #6
 8002c6c:	f7fd fac8 	bl	8000200 <memchr>
 8002c70:	2800      	cmp	r0, #0
 8002c72:	d035      	beq.n	8002ce0 <_svfiprintf_r+0x1c8>
 8002c74:	4821      	ldr	r0, [pc, #132]	@ (8002cfc <_svfiprintf_r+0x1e4>)
 8002c76:	bb18      	cbnz	r0, 8002cc0 <_svfiprintf_r+0x1a8>
 8002c78:	9b03      	ldr	r3, [sp, #12]
 8002c7a:	3307      	adds	r3, #7
 8002c7c:	f023 0307 	bic.w	r3, r3, #7
 8002c80:	3308      	adds	r3, #8
 8002c82:	9303      	str	r3, [sp, #12]
 8002c84:	9b09      	ldr	r3, [sp, #36]	@ 0x24
 8002c86:	4403      	add	r3, r0
 8002c88:	9309      	str	r3, [sp, #36]	@ 0x24
 8002c8a:	e76c      	b.n	8002b66 <_svfiprintf_r+0x4e>
 8002c8c:	fb0c 3202 	mla	r2, ip, r2, r3
 8002c90:	460c      	mov	r4, r1
 8002c92:	2001      	movs	r0, #1
 8002c94:	e7aa      	b.n	8002bec <_svfiprintf_r+0xd4>
 8002c96:	2300      	movs	r3, #0
 8002c98:	3401      	adds	r4, #1
 8002c9a:	9305      	str	r3, [sp, #20]
 8002c9c:	4619      	mov	r1, r3
 8002c9e:	f04f 0c0a 	mov.w	ip, #10
 8002ca2:	4620      	mov	r0, r4
 8002ca4:	f810 2b01 	ldrb.w	r2, [r0], #1
 8002ca8:	3a30      	subs	r2, #48	@ 0x30
 8002caa:	2a09      	cmp	r2, #9
 8002cac:	d903      	bls.n	8002cb6 <_svfiprintf_r+0x19e>
 8002cae:	2b00      	cmp	r3, #0
 8002cb0:	d0c6      	beq.n	8002c40 <_svfiprintf_r+0x128>
 8002cb2:	9105      	str	r1, [sp, #20]
 8002cb4:	e7c4      	b.n	8002c40 <_svfiprintf_r+0x128>
 8002cb6:	fb0c 2101 	mla	r1, ip, r1, r2
 8002cba:	4604      	mov	r4, r0
 8002cbc:	2301      	movs	r3, #1
 8002cbe:	e7f0      	b.n	8002ca2 <_svfiprintf_r+0x18a>
 8002cc0:	ab03      	add	r3, sp, #12
 8002cc2:	9300      	str	r3, [sp, #0]
 8002cc4:	462a      	mov	r2, r5
 8002cc6:	4b0e      	ldr	r3, [pc, #56]	@ (8002d00 <_svfiprintf_r+0x1e8>)
 8002cc8:	a904      	add	r1, sp, #16
 8002cca:	4630      	mov	r0, r6
 8002ccc:	f3af 8000 	nop.w
 8002cd0:	1c42      	adds	r2, r0, #1
 8002cd2:	d1d7      	bne.n	8002c84 <_svfiprintf_r+0x16c>
 8002cd4:	89ab      	ldrh	r3, [r5, #12]
 8002cd6:	065b      	lsls	r3, r3, #25
 8002cd8:	f53f af32 	bmi.w	8002b40 <_svfiprintf_r+0x28>
 8002cdc:	9809      	ldr	r0, [sp, #36]	@ 0x24
 8002cde:	e731      	b.n	8002b44 <_svfiprintf_r+0x2c>
 8002ce0:	ab03      	add	r3, sp, #12
 8002ce2:	9300      	str	r3, [sp, #0]
 8002ce4:	462a      	mov	r2, r5
 8002ce6:	4b06      	ldr	r3, [pc, #24]	@ (8002d00 <_svfiprintf_r+0x1e8>)
 8002ce8:	a904      	add	r1, sp, #16
 8002cea:	4630      	mov	r0, r6
 8002cec:	f000 f87a 	bl	8002de4 <_printf_i>
 8002cf0:	e7ee      	b.n	8002cd0 <_svfiprintf_r+0x1b8>
 8002cf2:	bf00      	nop
 8002cf4:	080039d0 	.word	0x080039d0
 8002cf8:	080039da 	.word	0x080039da
 8002cfc:	00000000 	.word	0x00000000
 8002d00:	08002a59 	.word	0x08002a59
 8002d04:	080039d6 	.word	0x080039d6

08002d08 <_printf_common>:
 8002d08:	e92d 47f0 	stmdb	sp!, {r4, r5, r6, r7, r8, r9, sl, lr}
 8002d0c:	4616      	mov	r6, r2
 8002d0e:	4698      	mov	r8, r3
 8002d10:	688a      	ldr	r2, [r1, #8]
 8002d12:	690b      	ldr	r3, [r1, #16]
 8002d14:	f8dd 9020 	ldr.w	r9, [sp, #32]
 8002d18:	4293      	cmp	r3, r2
 8002d1a:	bfb8      	it	lt
 8002d1c:	4613      	movlt	r3, r2
 8002d1e:	6033      	str	r3, [r6, #0]
 8002d20:	f891 2043 	ldrb.w	r2, [r1, #67]	@ 0x43
 8002d24:	4607      	mov	r7, r0
 8002d26:	460c      	mov	r4, r1
 8002d28:	b10a      	cbz	r2, 8002d2e <_printf_common+0x26>
 8002d2a:	3301      	adds	r3, #1
 8002d2c:	6033      	str	r3, [r6, #0]
 8002d2e:	6823      	ldr	r3, [r4, #0]
 8002d30:	0699      	lsls	r1, r3, #26
 8002d32:	bf42      	ittt	mi
 8002d34:	6833      	ldrmi	r3, [r6, #0]
 8002d36:	3302      	addmi	r3, #2
 8002d38:	6033      	strmi	r3, [r6, #0]
 8002d3a:	6825      	ldr	r5, [r4, #0]
 8002d3c:	f015 0506 	ands.w	r5, r5, #6
 8002d40:	d106      	bne.n	8002d50 <_printf_common+0x48>
 8002d42:	f104 0a19 	add.w	sl, r4, #25
 8002d46:	68e3      	ldr	r3, [r4, #12]
 8002d48:	6832      	ldr	r2, [r6, #0]
 8002d4a:	1a9b      	subs	r3, r3, r2
 8002d4c:	42ab      	cmp	r3, r5
 8002d4e:	dc26      	bgt.n	8002d9e <_printf_common+0x96>
 8002d50:	f894 3043 	ldrb.w	r3, [r4, #67]	@ 0x43
 8002d54:	6822      	ldr	r2, [r4, #0]
 8002d56:	3b00      	subs	r3, #0
 8002d58:	bf18      	it	ne
 8002d5a:	2301      	movne	r3, #1
 8002d5c:	0692      	lsls	r2, r2, #26
 8002d5e:	d42b      	bmi.n	8002db8 <_printf_common+0xb0>
 8002d60:	f104 0243 	add.w	r2, r4, #67	@ 0x43
 8002d64:	4641      	mov	r1, r8
 8002d66:	4638      	mov	r0, r7
 8002d68:	47c8      	blx	r9
 8002d6a:	3001      	adds	r0, #1
 8002d6c:	d01e      	beq.n	8002dac <_printf_common+0xa4>
 8002d6e:	6823      	ldr	r3, [r4, #0]
 8002d70:	6922      	ldr	r2, [r4, #16]
 8002d72:	f003 0306 	and.w	r3, r3, #6
 8002d76:	2b04      	cmp	r3, #4
 8002d78:	bf02      	ittt	eq
 8002d7a:	68e5      	ldreq	r5, [r4, #12]
 8002d7c:	6833      	ldreq	r3, [r6, #0]
 8002d7e:	1aed      	subeq	r5, r5, r3
 8002d80:	68a3      	ldr	r3, [r4, #8]
 8002d82:	bf0c      	ite	eq
 8002d84:	ea25 75e5 	biceq.w	r5, r5, r5, asr #31
 8002d88:	2500      	movne	r5, #0
 8002d8a:	4293      	cmp	r3, r2
 8002d8c:	bfc4      	itt	gt
 8002d8e:	1a9b      	subgt	r3, r3, r2
 8002d90:	18ed      	addgt	r5, r5, r3
 8002d92:	2600      	movs	r6, #0
 8002d94:	341a      	adds	r4, #26
 8002d96:	42b5      	cmp	r5, r6
 8002d98:	d11a      	bne.n	8002dd0 <_printf_common+0xc8>
 8002d9a:	2000      	movs	r0, #0
 8002d9c:	e008      	b.n	8002db0 <_printf_common+0xa8>
 8002d9e:	2301      	movs	r3, #1
 8002da0:	4652      	mov	r2, sl
 8002da2:	4641      	mov	r1, r8
 8002da4:	4638      	mov	r0, r7
 8002da6:	47c8      	blx	r9
 8002da8:	3001      	adds	r0, #1
 8002daa:	d103      	bne.n	8002db4 <_printf_common+0xac>
 8002dac:	f04f 30ff 	mov.w	r0, #4294967295
 8002db0:	e8bd 87f0 	ldmia.w	sp!, {r4, r5, r6, r7, r8, r9, sl, pc}
 8002db4:	3501      	adds	r5, #1
 8002db6:	e7c6      	b.n	8002d46 <_printf_common+0x3e>
 8002db8:	18e1      	adds	r1, r4, r3
 8002dba:	1c5a      	adds	r2, r3, #1
 8002dbc:	2030      	movs	r0, #48	@ 0x30
 8002dbe:	f881 0043 	strb.w	r0, [r1, #67]	@ 0x43
 8002dc2:	4422      	add	r2, r4
 8002dc4:	f894 1045 	ldrb.w	r1, [r4, #69]	@ 0x45
 8002dc8:	f882 1043 	strb.w	r1, [r2, #67]	@ 0x43
 8002dcc:	3302      	adds	r3, #2
 8002dce:	e7c7      	b.n	8002d60 <_printf_common+0x58>
 8002dd0:	2301      	movs	r3, #1
 8002dd2:	4622      	mov	r2, r4
 8002dd4:	4641      	mov	r1, r8
 8002dd6:	4638      	mov	r0, r7
 8002dd8:	47c8      	blx	r9
 8002dda:	3001      	adds	r0, #1
 8002ddc:	d0e6      	beq.n	8002dac <_printf_common+0xa4>
 8002dde:	3601      	adds	r6, #1
 8002de0:	e7d9      	b.n	8002d96 <_printf_common+0x8e>
	...

08002de4 <_printf_i>:
 8002de4:	e92d 43f0 	stmdb	sp!, {r4, r5, r6, r7, r8, r9, lr}
 8002de8:	7e0d      	ldrb	r5, [r1, #24]
 8002dea:	b085      	sub	sp, #20
 8002dec:	2d78      	cmp	r5, #120	@ 0x78
 8002dee:	4690      	mov	r8, r2
 8002df0:	9e0c      	ldr	r6, [sp, #48]	@ 0x30
 8002df2:	4607      	mov	r7, r0
 8002df4:	460c      	mov	r4, r1
 8002df6:	4699      	mov	r9, r3
 8002df8:	f101 0243 	add.w	r2, r1, #67	@ 0x43
 8002dfc:	d807      	bhi.n	8002e0e <_printf_i+0x2a>
 8002dfe:	2d62      	cmp	r5, #98	@ 0x62
 8002e00:	d80a      	bhi.n	8002e18 <_printf_i+0x34>
 8002e02:	2d00      	cmp	r5, #0
 8002e04:	f000 80d7 	beq.w	8002fb6 <_printf_i+0x1d2>
 8002e08:	2d58      	cmp	r5, #88	@ 0x58
 8002e0a:	f000 80bc 	beq.w	8002f86 <_printf_i+0x1a2>
 8002e0e:	f104 0642 	add.w	r6, r4, #66	@ 0x42
 8002e12:	f884 5042 	strb.w	r5, [r4, #66]	@ 0x42
 8002e16:	e03b      	b.n	8002e90 <_printf_i+0xac>
 8002e18:	f1a5 0363 	sub.w	r3, r5, #99	@ 0x63
 8002e1c:	2b15      	cmp	r3, #21
 8002e1e:	d8f6      	bhi.n	8002e0e <_printf_i+0x2a>
 8002e20:	a101      	add	r1, pc, #4	@ (adr r1, 8002e28 <_printf_i+0x44>)
 8002e22:	f851 f023 	ldr.w	pc, [r1, r3, lsl #2]
 8002e26:	bf00      	nop
 8002e28:	08002e81 	.word	0x08002e81
 8002e2c:	08002e95 	.word	0x08002e95
 8002e30:	08002e0f 	.word	0x08002e0f
 8002e34:	08002e0f 	.word	0x08002e0f
 8002e38:	08002e0f 	.word	0x08002e0f
 8002e3c:	08002e0f 	.word	0x08002e0f
 8002e40:	08002e95 	.word	0x08002e95
 8002e44:	08002e0f 	.word	0x08002e0f
 8002e48:	08002e0f 	.word	0x08002e0f
 8002e4c:	08002e0f 	.word	0x08002e0f
 8002e50:	08002e0f 	.word	0x08002e0f
 8002e54:	08002f9d 	.word	0x08002f9d
 8002e58:	08002ebf 	.word	0x08002ebf
 8002e5c:	08002f4f 	.word	0x08002f4f
 8002e60:	08002e0f 	.word	0x08002e0f
 8002e64:	08002e0f 	.word	0x08002e0f
 8002e68:	08002fbf 	.word	0x08002fbf
 8002e6c:	08002e0f 	.word	0x08002e0f
 8002e70:	08002ebf 	.word	0x08002ebf
 8002e74:	08002e0f 	.word	0x08002e0f
 8002e78:	08002e0f 	.word	0x08002e0f
 8002e7c:	08002f57 	.word	0x08002f57
 8002e80:	6833      	ldr	r3, [r6, #0]
 8002e82:	1d1a      	adds	r2, r3, #4
 8002e84:	681b      	ldr	r3, [r3, #0]
 8002e86:	6032      	str	r2, [r6, #0]
 8002e88:	f104 0642 	add.w	r6, r4, #66	@ 0x42
 8002e8c:	f884 3042 	strb.w	r3, [r4, #66]	@ 0x42
 8002e90:	2301      	movs	r3, #1
 8002e92:	e0a1      	b.n	8002fd8 <_printf_i+0x1f4>
 8002e94:	6833      	ldr	r3, [r6, #0]
 8002e96:	6820      	ldr	r0, [r4, #0]
 8002e98:	1d19      	adds	r1, r3, #4
 8002e9a:	6031      	str	r1, [r6, #0]
 8002e9c:	0606      	lsls	r6, r0, #24
 8002e9e:	d501      	bpl.n	8002ea4 <_printf_i+0xc0>
 8002ea0:	681d      	ldr	r5, [r3, #0]
 8002ea2:	e003      	b.n	8002eac <_printf_i+0xc8>
 8002ea4:	0645      	lsls	r5, r0, #25
 8002ea6:	d5fb      	bpl.n	8002ea0 <_printf_i+0xbc>
 8002ea8:	f9b3 5000 	ldrsh.w	r5, [r3]
 8002eac:	2d00      	cmp	r5, #0
 8002eae:	da03      	bge.n	8002eb8 <_printf_i+0xd4>
 8002eb0:	232d      	movs	r3, #45	@ 0x2d
 8002eb2:	426d      	negs	r5, r5
 8002eb4:	f884 3043 	strb.w	r3, [r4, #67]	@ 0x43
 8002eb8:	485b      	ldr	r0, [pc, #364]	@ (8003028 <_printf_i+0x244>)
 8002eba:	230a      	movs	r3, #10
 8002ebc:	e011      	b.n	8002ee2 <_printf_i+0xfe>
 8002ebe:	6821      	ldr	r1, [r4, #0]
 8002ec0:	6833      	ldr	r3, [r6, #0]
 8002ec2:	0608      	lsls	r0, r1, #24
 8002ec4:	f853 5b04 	ldr.w	r5, [r3], #4
 8002ec8:	d402      	bmi.n	8002ed0 <_printf_i+0xec>
 8002eca:	0649      	lsls	r1, r1, #25
 8002ecc:	bf48      	it	mi
 8002ece:	b2ad      	uxthmi	r5, r5
 8002ed0:	6033      	str	r3, [r6, #0]
 8002ed2:	7e23      	ldrb	r3, [r4, #24]
 8002ed4:	4854      	ldr	r0, [pc, #336]	@ (8003028 <_printf_i+0x244>)
 8002ed6:	2b6f      	cmp	r3, #111	@ 0x6f
 8002ed8:	d15c      	bne.n	8002f94 <_printf_i+0x1b0>
 8002eda:	2308      	movs	r3, #8
 8002edc:	2100      	movs	r1, #0
 8002ede:	f884 1043 	strb.w	r1, [r4, #67]	@ 0x43
 8002ee2:	6866      	ldr	r6, [r4, #4]
 8002ee4:	60a6      	str	r6, [r4, #8]
 8002ee6:	2e00      	cmp	r6, #0
 8002ee8:	db05      	blt.n	8002ef6 <_printf_i+0x112>
 8002eea:	6821      	ldr	r1, [r4, #0]
 8002eec:	432e      	orrs	r6, r5
 8002eee:	f021 0104 	bic.w	r1, r1, #4
 8002ef2:	6021      	str	r1, [r4, #0]
 8002ef4:	d050      	beq.n	8002f98 <_printf_i+0x1b4>
 8002ef6:	4616      	mov	r6, r2
 8002ef8:	fbb5 f1f3 	udiv	r1, r5, r3
 8002efc:	fb03 5c11 	mls	ip, r3, r1, r5
 8002f00:	f810 c00c 	ldrb.w	ip, [r0, ip]
 8002f04:	f806 cd01 	strb.w	ip, [r6, #-1]!
 8002f08:	46ac      	mov	ip, r5
 8002f0a:	4563      	cmp	r3, ip
 8002f0c:	460d      	mov	r5, r1
 8002f0e:	d9f3      	bls.n	8002ef8 <_printf_i+0x114>
 8002f10:	2b08      	cmp	r3, #8
 8002f12:	d10b      	bne.n	8002f2c <_printf_i+0x148>
 8002f14:	6823      	ldr	r3, [r4, #0]
 8002f16:	07db      	lsls	r3, r3, #31
 8002f18:	d508      	bpl.n	8002f2c <_printf_i+0x148>
 8002f1a:	6923      	ldr	r3, [r4, #16]
 8002f1c:	6861      	ldr	r1, [r4, #4]
 8002f1e:	4299      	cmp	r1, r3
 8002f20:	bfde      	ittt	le
 8002f22:	2330      	movle	r3, #48	@ 0x30
 8002f24:	f806 3c01 	strble.w	r3, [r6, #-1]
 8002f28:	f106 36ff 	addle.w	r6, r6, #4294967295
 8002f2c:	1b92      	subs	r2, r2, r6
 8002f2e:	6122      	str	r2, [r4, #16]
 8002f30:	f8cd 9000 	str.w	r9, [sp]
 8002f34:	4643      	mov	r3, r8
 8002f36:	aa03      	add	r2, sp, #12
 8002f38:	4621      	mov	r1, r4
 8002f3a:	4638      	mov	r0, r7
 8002f3c:	f7ff fee4 	bl	8002d08 <_printf_common>
 8002f40:	3001      	adds	r0, #1
 8002f42:	d14e      	bne.n	8002fe2 <_printf_i+0x1fe>
 8002f44:	f04f 30ff 	mov.w	r0, #4294967295
 8002f48:	b005      	add	sp, #20
 8002f4a:	e8bd 83f0 	ldmia.w	sp!, {r4, r5, r6, r7, r8, r9, pc}
 8002f4e:	6823      	ldr	r3, [r4, #0]
 8002f50:	f043 0320 	orr.w	r3, r3, #32
 8002f54:	6023      	str	r3, [r4, #0]
 8002f56:	4835      	ldr	r0, [pc, #212]	@ (800302c <_printf_i+0x248>)
 8002f58:	2578      	movs	r5, #120	@ 0x78
 8002f5a:	f884 5045 	strb.w	r5, [r4, #69]	@ 0x45
 8002f5e:	6823      	ldr	r3, [r4, #0]
 8002f60:	6831      	ldr	r1, [r6, #0]
 8002f62:	f013 0f80 	tst.w	r3, #128	@ 0x80
 8002f66:	f851 5b04 	ldr.w	r5, [r1], #4
 8002f6a:	d103      	bne.n	8002f74 <_printf_i+0x190>
 8002f6c:	f013 0f40 	tst.w	r3, #64	@ 0x40
 8002f70:	bf18      	it	ne
 8002f72:	b2ad      	uxthne	r5, r5
 8002f74:	6031      	str	r1, [r6, #0]
 8002f76:	07d9      	lsls	r1, r3, #31
 8002f78:	bf44      	itt	mi
 8002f7a:	f043 0320 	orrmi.w	r3, r3, #32
 8002f7e:	6023      	strmi	r3, [r4, #0]
 8002f80:	b11d      	cbz	r5, 8002f8a <_printf_i+0x1a6>
 8002f82:	2310      	movs	r3, #16
 8002f84:	e7aa      	b.n	8002edc <_printf_i+0xf8>
 8002f86:	4828      	ldr	r0, [pc, #160]	@ (8003028 <_printf_i+0x244>)
 8002f88:	e7e7      	b.n	8002f5a <_printf_i+0x176>
 8002f8a:	6823      	ldr	r3, [r4, #0]
 8002f8c:	f023 0320 	bic.w	r3, r3, #32
 8002f90:	6023      	str	r3, [r4, #0]
 8002f92:	e7f6      	b.n	8002f82 <_printf_i+0x19e>
 8002f94:	230a      	movs	r3, #10
 8002f96:	e7a1      	b.n	8002edc <_printf_i+0xf8>
 8002f98:	4616      	mov	r6, r2
 8002f9a:	e7b9      	b.n	8002f10 <_printf_i+0x12c>
 8002f9c:	6833      	ldr	r3, [r6, #0]
 8002f9e:	6825      	ldr	r5, [r4, #0]
 8002fa0:	6961      	ldr	r1, [r4, #20]
 8002fa2:	1d18      	adds	r0, r3, #4
 8002fa4:	6030      	str	r0, [r6, #0]
 8002fa6:	062e      	lsls	r6, r5, #24
 8002fa8:	681b      	ldr	r3, [r3, #0]
 8002faa:	d501      	bpl.n	8002fb0 <_printf_i+0x1cc>
 8002fac:	6019      	str	r1, [r3, #0]
 8002fae:	e002      	b.n	8002fb6 <_printf_i+0x1d2>
 8002fb0:	0668      	lsls	r0, r5, #25
 8002fb2:	d5fb      	bpl.n	8002fac <_printf_i+0x1c8>
 8002fb4:	8019      	strh	r1, [r3, #0]
 8002fb6:	2300      	movs	r3, #0
 8002fb8:	6123      	str	r3, [r4, #16]
 8002fba:	4616      	mov	r6, r2
 8002fbc:	e7b8      	b.n	8002f30 <_printf_i+0x14c>
 8002fbe:	6833      	ldr	r3, [r6, #0]
 8002fc0:	1d1a      	adds	r2, r3, #4
 8002fc2:	6032      	str	r2, [r6, #0]
 8002fc4:	681e      	ldr	r6, [r3, #0]
 8002fc6:	6862      	ldr	r2, [r4, #4]
 8002fc8:	2100      	movs	r1, #0
 8002fca:	4630      	mov	r0, r6
 8002fcc:	f7fd f918 	bl	8000200 <memchr>
 8002fd0:	b108      	cbz	r0, 8002fd6 <_printf_i+0x1f2>
 8002fd2:	1b80      	subs	r0, r0, r6
 8002fd4:	6060      	str	r0, [r4, #4]
 8002fd6:	6863      	ldr	r3, [r4, #4]
 8002fd8:	6123      	str	r3, [r4, #16]
 8002fda:	2300      	movs	r3, #0
 8002fdc:	f884 3043 	strb.w	r3, [r4, #67]	@ 0x43
 8002fe0:	e7a6      	b.n	8002f30 <_printf_i+0x14c>
 8002fe2:	6923      	ldr	r3, [r4, #16]
 8002fe4:	4632      	mov	r2, r6
 8002fe6:	4641      	mov	r1, r8
 8002fe8:	4638      	mov	r0, r7
 8002fea:	47c8      	blx	r9
 8002fec:	3001      	adds	r0, #1
 8002fee:	d0a9      	beq.n	8002f44 <_printf_i+0x160>
 8002ff0:	6823      	ldr	r3, [r4, #0]
 8002ff2:	079b      	lsls	r3, r3, #30
 8002ff4:	d413      	bmi.n	800301e <_printf_i+0x23a>
 8002ff6:	68e0      	ldr	r0, [r4, #12]
 8002ff8:	9b03      	ldr	r3, [sp, #12]
 8002ffa:	4298      	cmp	r0, r3
 8002ffc:	bfb8      	it	lt
 8002ffe:	4618      	movlt	r0, r3
 8003000:	e7a2      	b.n	8002f48 <_printf_i+0x164>
 8003002:	2301      	movs	r3, #1
 8003004:	4632      	mov	r2, r6
 8003006:	4641      	mov	r1, r8
 8003008:	4638      	mov	r0, r7
 800300a:	47c8      	blx	r9
 800300c:	3001      	adds	r0, #1
 800300e:	d099      	beq.n	8002f44 <_printf_i+0x160>
 8003010:	3501      	adds	r5, #1
 8003012:	68e3      	ldr	r3, [r4, #12]
 8003014:	9903      	ldr	r1, [sp, #12]
 8003016:	1a5b      	subs	r3, r3, r1
 8003018:	42ab      	cmp	r3, r5
 800301a:	dcf2      	bgt.n	8003002 <_printf_i+0x21e>
 800301c:	e7eb      	b.n	8002ff6 <_printf_i+0x212>
 800301e:	2500      	movs	r5, #0
 8003020:	f104 0619 	add.w	r6, r4, #25
 8003024:	e7f5      	b.n	8003012 <_printf_i+0x22e>
 8003026:	bf00      	nop
 8003028:	080039e1 	.word	0x080039e1
 800302c:	080039f2 	.word	0x080039f2

08003030 <memmove>:
 8003030:	4288      	cmp	r0, r1
 8003032:	b510      	push	{r4, lr}
 8003034:	eb01 0402 	add.w	r4, r1, r2
 8003038:	d902      	bls.n	8003040 <memmove+0x10>
 800303a:	4284      	cmp	r4, r0
 800303c:	4623      	mov	r3, r4
 800303e:	d807      	bhi.n	8003050 <memmove+0x20>
 8003040:	1e43      	subs	r3, r0, #1
 8003042:	42a1      	cmp	r1, r4
 8003044:	d007      	beq.n	8003056 <memmove+0x26>
 8003046:	f811 2b01 	ldrb.w	r2, [r1], #1
 800304a:	f803 2f01 	strb.w	r2, [r3, #1]!
 800304e:	e7f8      	b.n	8003042 <memmove+0x12>
 8003050:	4402      	add	r2, r0
 8003052:	4282      	cmp	r2, r0
 8003054:	d100      	bne.n	8003058 <memmove+0x28>
 8003056:	bd10      	pop	{r4, pc}
 8003058:	f813 1d01 	ldrb.w	r1, [r3, #-1]!
 800305c:	f802 1d01 	strb.w	r1, [r2, #-1]!
 8003060:	e7f7      	b.n	8003052 <memmove+0x22>
	...

08003064 <_sbrk_r>:
 8003064:	b538      	push	{r3, r4, r5, lr}
 8003066:	4d06      	ldr	r5, [pc, #24]	@ (8003080 <_sbrk_r+0x1c>)
 8003068:	2300      	movs	r3, #0
 800306a:	4604      	mov	r4, r0
 800306c:	4608      	mov	r0, r1
 800306e:	602b      	str	r3, [r5, #0]
 8003070:	f7ff fb22 	bl	80026b8 <_sbrk>
 8003074:	1c43      	adds	r3, r0, #1
 8003076:	d102      	bne.n	800307e <_sbrk_r+0x1a>
 8003078:	682b      	ldr	r3, [r5, #0]
 800307a:	b103      	cbz	r3, 800307e <_sbrk_r+0x1a>
 800307c:	6023      	str	r3, [r4, #0]
 800307e:	bd38      	pop	{r3, r4, r5, pc}
 8003080:	20000ac8 	.word	0x20000ac8

08003084 <_realloc_r>:
 8003084:	e92d 41f0 	stmdb	sp!, {r4, r5, r6, r7, r8, lr}
 8003088:	4607      	mov	r7, r0
 800308a:	4614      	mov	r4, r2
 800308c:	460d      	mov	r5, r1
 800308e:	b921      	cbnz	r1, 800309a <_realloc_r+0x16>
 8003090:	e8bd 41f0 	ldmia.w	sp!, {r4, r5, r6, r7, r8, lr}
 8003094:	4611      	mov	r1, r2
 8003096:	f7ff bc53 	b.w	8002940 <_malloc_r>
 800309a:	b92a      	cbnz	r2, 80030a8 <_realloc_r+0x24>
 800309c:	f7ff fbe4 	bl	8002868 <_free_r>
 80030a0:	4625      	mov	r5, r4
 80030a2:	4628      	mov	r0, r5
 80030a4:	e8bd 81f0 	ldmia.w	sp!, {r4, r5, r6, r7, r8, pc}
 80030a8:	f000 f81a 	bl	80030e0 <_malloc_usable_size_r>
 80030ac:	4284      	cmp	r4, r0
 80030ae:	4606      	mov	r6, r0
 80030b0:	d802      	bhi.n	80030b8 <_realloc_r+0x34>
 80030b2:	ebb4 0f50 	cmp.w	r4, r0, lsr #1
 80030b6:	d8f4      	bhi.n	80030a2 <_realloc_r+0x1e>
 80030b8:	4621      	mov	r1, r4
 80030ba:	4638      	mov	r0, r7
 80030bc:	f7ff fc40 	bl	8002940 <_malloc_r>
 80030c0:	4680      	mov	r8, r0
 80030c2:	b908      	cbnz	r0, 80030c8 <_realloc_r+0x44>
 80030c4:	4645      	mov	r5, r8
 80030c6:	e7ec      	b.n	80030a2 <_realloc_r+0x1e>
 80030c8:	42b4      	cmp	r4, r6
 80030ca:	4622      	mov	r2, r4
 80030cc:	4629      	mov	r1, r5
 80030ce:	bf28      	it	cs
 80030d0:	4632      	movcs	r2, r6
 80030d2:	f7ff fbbb 	bl	800284c <memcpy>
 80030d6:	4629      	mov	r1, r5
 80030d8:	4638      	mov	r0, r7
 80030da:	f7ff fbc5 	bl	8002868 <_free_r>
 80030de:	e7f1      	b.n	80030c4 <_realloc_r+0x40>

080030e0 <_malloc_usable_size_r>:
 80030e0:	f851 3c04 	ldr.w	r3, [r1, #-4]
 80030e4:	1f18      	subs	r0, r3, #4
 80030e6:	2b00      	cmp	r3, #0
 80030e8:	bfbc      	itt	lt
 80030ea:	580b      	ldrlt	r3, [r1, r0]
 80030ec:	18c0      	addlt	r0, r0, r3
 80030ee:	4770      	bx	lr

080030f0 <_init>:
 80030f0:	b5f8      	push	{r3, r4, r5, r6, r7, lr}
 80030f2:	bf00      	nop
 80030f4:	bcf8      	pop	{r3, r4, r5, r6, r7}
 80030f6:	bc08      	pop	{r3}
 80030f8:	469e      	mov	lr, r3
 80030fa:	4770      	bx	lr

080030fc <_fini>:
 80030fc:	b5f8      	push	{r3, r4, r5, r6, r7, lr}
 80030fe:	bf00      	nop
 8003100:	bcf8      	pop	{r3, r4, r5, r6, r7}
 8003102:	bc08      	pop	{r3}
 8003104:	469e      	mov	lr, r3
 8003106:	4770      	bx	lr
